(lp0
S'PRP$'
p1
aS'VBG'
p2
aS'VBD'
p3
aS'``'
p4
aS'VBN'
p5
aS'POS'
p6
aS"''"
p7
aS'VBP'
p8
aS'WDT'
p9
aS'JJ'
p10
aS'WP'
p11
aS'VBZ'
p12
aS'DT'
p13
aS'#'
p14
aS'RP'
p15
aS'$'
p16
aS'NN'
p17
aS'FW'
p18
aS','
p19
aS'.'
p20
aS'TO'
p21
aS'PRP'
p22
aS'RB'
p23
aS'-LRB-'
p24
aS':'
p25
aS'NNS'
p26
aS'NNP'
p27
aS'VB'
p28
aS'WRB'
p29
aS'CC'
p30
aS'LS'
p31
aS'PDT'
p32
aS'RBS'
p33
aS'RBR'
p34
aS'CD'
p35
aS'EX'
p36
aS'IN'
p37
aS'MD'
p38
aS'NNPS'
p39
aS'-RRB-'
p40
aS'JJS'
p41
aS'JJR'
p42
aS'SYM'
p43
aS'UH'
p44
a.