(dp0
S'PRP$'
p1
I0
sS'VBG'
p2
I1
sS'FW'
p3
I17
sS'VBN'
p4
I4
sS','
p5
I18
sS"''"
p6
I6
sS'VBP'
p7
I7
sS'WDT'
p8
I8
sS'JJ'
p9
I9
sS'WP'
p10
I10
sS'VBZ'
p11
I11
sS'DT'
p12
I12
sS'#'
p13
I13
sS'RP'
p14
I14
sS'$'
p15
I15
sS'NN'
p16
I16
sS'VBD'
p17
I2
sS'POS'
p18
I5
sS'.'
p19
I19
sS'TO'
p20
I20
sS'PRP'
p21
I21
sS'RB'
p22
I22
sS'-LRB-'
p23
I23
sS':'
p24
I24
sS'NNS'
p25
I25
sS'NNP'
p26
I26
sS'``'
p27
I3
sS'WRB'
p28
I28
sS'CC'
p29
I29
sS'LS'
p30
I30
sS'PDT'
p31
I31
sS'RBS'
p32
I32
sS'RBR'
p33
I33
sS'CD'
p34
I34
sS'EX'
p35
I35
sS'IN'
p36
I36
sS'MD'
p37
I37
sS'NNPS'
p38
I38
sS'-RRB-'
p39
I39
sS'JJS'
p40
I40
sS'JJR'
p41
I41
sS'SYM'
p42
I42
sS'VB'
p43
I27
sS'UH'
p44
I43
s.