(dp0
S'limited'
p1
I0
sS'saves'
p2
I2
sS'sleek'
p3
I3
sS'four'
p4
I4
sS'Dining'
p5
I5
sS'martinis'
p6
I6
sS'dirty'
p7
I3256
sS'NYC'
p8
I7
sS'hate'
p9
I8
sS'poorly'
p10
I166
sS'stinks'
p11
I10
sS'Watch'
p12
I11
sS'whatsoever'
p13
I13
sS'under'
p14
I14
sS'immature'
p15
I15
sS'worth'
p16
I16
sS'started'
p17
I2869
sS'@'
p18
I17
sS'400.00'
p19
I18
sS'risk'
p20
I19
sS'Cute'
p21
I2431
sS'MAJOR'
p22
I22
sS'every'
p23
I24
sS'figs'
p24
I25
sS'Steak'
p25
I26
sS'bringing'
p26
I27
sS'NAME'
p27
I28
sS'disturb'
p28
I29
sS'prize'
p29
I30
sS'Less'
p30
I31
sS'wooden'
p31
I32
sS'clientele'
p32
I33
sS'frozen'
p33
I2435
sS'chips-good'
p34
I36
sS'Go'
p35
I37
sS'super-fresh'
p36
I38
sS'Paul'
p37
I39
sS'reliable'
p38
I2437
sS'clothes'
p39
I41
sS'enjoy'
p40
I42
sS'chew'
p41
I43
sS'force'
p42
I45
sS'tired'
p43
I46
sS'consistent'
p44
I47
sS'japanese'
p45
I48
sS'chef'
p46
I49
sS'elegant'
p47
I392
sS'second'
p48
I51
sS'fabulous'
p49
I52
sS'huffing'
p50
I53
sS'quite'
p51
I82
sS'even'
p52
I55
sS'!!!!!!!!!!!!'
p53
I1777
sS'porcini'
p54
I1828
sS'hide'
p55
I442
sS'saved'
p56
I59
sS'+'
p57
I60
sS'cooking'
p58
I61
sS'Pub'
p59
I63
sS'This'
p60
I3040
sS'Wrong'
p61
I65
sS'hostile'
p62
I3053
sS'above'
p63
I67
sS'new'
p64
I68
sS'tips'
p65
I69
sS'hmmm'
p66
I1830
sS'ever'
p67
I71
sS'told'
p68
I72
sS'Mizu'
p69
I73
sS'curry'
p70
I75
sS'pancakes'
p71
I76
sS'herb'
p72
I77
sS'never'
p73
I78
sS'here'
p74
I79
sS'path'
p75
I80
sS'100'
p76
I81
sS'cardboard'
p77
I579
sS'mozzarella'
p78
I83
sS'dry'
p79
I84
sS'kids'
p80
I85
sS'daughter'
p81
I86
sS'over-priced'
p82
I87
sS'items'
p83
I88
sS'leaves'
p84
I89
sS'changed'
p85
I90
sS'proportioned'
p86
I91
sS'Ginger'
p87
I92
sS'credit'
p88
I93
sS'frendly'
p89
I94
sS'vitello'
p90
I95
sS'stressed'
p91
I96
sS'NOT'
p92
I97
sS'spotty'
p93
I98
sS'settled'
p94
I99
sS'NOR'
p95
I100
sS'pairings'
p96
I1150
sS'Cassuolet'
p97
I102
sS'fantastic'
p98
I103
sS'slices'
p99
I104
sS'Rather'
p100
I105
sS'St.'
p101
I106
sS'highly'
p102
I107
sS'brought'
p103
I108
sS'Also'
p104
I109
sS'non-veg'
p105
I110
sS'MMmmm'
p106
I111
sS'guests'
p107
I112
sS'Basil'
p108
I113
sS'Italy'
p109
I2451
sS'glance'
p110
I115
sS'spoke'
p111
I118
sS'would'
p112
I119
sS'watering'
p113
I120
sS'negative'
p114
I121
sS'Stay'
p115
I122
sS'music'
p116
I123
sS'calm'
p117
I124
sS'recommend'
p118
I125
sS'survive'
p119
I126
sS'type'
p120
I127
sS'tell'
p121
I128
sS'attractive'
p122
I3404
sS'sushi'
p123
I129
sS'Parisian'
p124
I130
sS'congee'
p125
I1840
sS'award'
p126
I132
sS'aware'
p127
I133
sS'warn'
p128
I134
sS'glass'
p129
I135
sS'warm'
p130
I136
sS'excellent'
p131
I138
sS'recommand'
p132
I139
sS'must'
p133
I932
sS'me'
p134
I141
sS'Vittorio'
p135
I948
sS'room'
p136
I143
sS'presentation'
p137
I1843
sS'work'
p138
I145
sS'entertained'
p139
I147
sS'Battery'
p140
I149
sS'mw'
p141
I150
sS'deficiencies'
p142
I151
sS'laid-back'
p143
I152
sS'exceptions'
p144
I153
sS'im'
p145
I154
sS'my'
p146
I155
sS'could'
p147
I3056
sS'decorative'
p148
I156
sS'excuses'
p149
I2694
sS'vodka'
p150
I157
sS'unmarked'
p151
I158
sS'Chilli'
p152
I295
sS'organized'
p153
I160
sS'grazie'
p154
I3298
sS'foods'
p155
I161
sS'want'
p156
I162
sS'boths'
p157
I163
sS'Pastrami-but'
p158
I1111
sS'attract'
p159
I165
sS'!!!'
p160
I167
sS'LA'
p161
I168
sS'provide'
p162
I169
sS'travel'
p163
I170
sS'sitting'
p164
I1847
sS'frites'
p165
I172
sS'confit'
p166
I173
sS'how'
p167
I174
sS'hot'
p168
I175
sS'penne'
p169
I3550
sS'LS'
p170
I176
sS'Hyde'
p171
I3062
sS'ordinary'
p172
I178
sS'PIZZA'
p173
I179
sS'pizza'
p174
I181
sS'A'
p175
I182
sS'badly'
p176
I183
sS'cuisine'
p177
I2464
sS'mess'
p178
I185
sS'after'
p179
I186
sS'Will'
p180
I187
sS'amanzing'
p181
I188
sS'wrong'
p182
I189
sS'fat'
p183
I1851
sS'Femme'
p184
I3383
sS'types'
p185
I192
sS'shirt'
p186
I2466
sS'thinly-sliced'
p187
I1286
sS'Chowder'
p188
I194
sS'third'
p189
I195
sS'looove'
p190
I197
sS'amid'
p191
I198
sS'vegetables'
p192
I3496
sS'appreciate'
p193
I200
sS'Japanese'
p194
I201
sS'greet'
p195
I202
sS'maintain'
p196
I203
sS'upside'
p197
I204
sS'enter'
p198
I213
sS'worst'
p199
I1853
sS'oysters'
p200
I207
sS'order'
p201
I208
sS'wine'
p202
I209
sS'exotic'
p203
I1253
sS'Eye'
p204
I211
sS'selecion'
p205
I212
sS'over'
p206
I214
sS'zen'
p207
I216
sS'satisfied'
p208
I217
sS'excpetiona'
p209
I1857
sS'Haze'
p210
I219
sS'ghastly'
p211
I220
sS'oven'
p212
I221
sS'innovative'
p213
I222
sS'rewarded'
p214
I223
sS'before'
p215
I224
sS'pirces'
p216
I226
sS'His'
p217
I227
sS'fit'
p218
I228
sS'somewhere'
p219
I229
sS'fix'
p220
I230
sS','
p221
I231
sS'Here'
p222
I232
sS'writing'
p223
I233
sS'better'
p224
I234
sS'quater'
p225
I235
sS'bottled'
p226
I236
sS'understated'
p227
I237
sS'differently'
p228
I238
sS'receipies'
p229
I239
sS'hidden'
p230
I240
sS'split'
p231
I241
sS'then'
p232
I242
sS'them'
p233
I243
sS'thin-crust'
p234
I244
sS'combination'
p235
I245
sS'weakness'
p236
I1550
sS'scene'
p237
I3073
sS'band'
p238
I247
sS'roommate'
p239
I2587
sS'repulsive'
p240
I249
sS'effects'
p241
I250
sS'they'
p242
I251
sS'glazed'
p243
I252
sS'one'
p244
I1258
sS'ther'
p245
I254
sS'bibimbap'
p246
I255
sS'bread'
p247
I256
sS'represents'
p248
I257
sS'Vodka'
p249
I258
sS'Jamun'
p250
I259
sS'Carozza'
p251
I260
sS'swaying'
p252
I261
sS'potatoes'
p253
I262
sS'Hats'
p254
I263
sS'crunchy'
p255
I264
sS'rocks'
p256
I2052
sS'Four'
p257
I266
sS'Shame'
p258
I267
sS'filling'
p259
I268
sS'Hutner'
p260
I270
sS'reasonable'
p261
I271
sS'each'
p262
I272
sS'mignon'
p263
I1260
sS'went'
p264
I275
sS'higher'
p265
I276
sS'rosemary'
p266
I277
sS'meal'
p267
I278
sS'bone'
p268
I279
sS'mean'
p269
I280
sS'hanger'
p270
I281
sS'57th'
p271
I283
sS'dumping'
p272
I284
sS'Wow'
p273
I285
sS'tip'
p274
I2438
sS'GOOD'
p275
I1874
sS'turnip'
p276
I287
sS'forgot'
p277
I288
sS'!!!!!'
p278
I289
sS'Dynamite'
p279
I290
sS'Jeckll'
p280
I291
sS'saturday'
p281
I292
sS'hand-painted'
p282
I293
sS'dearth'
p283
I3546
sS'Ever'
p284
I296
sS'tried'
p285
I2008
sS'Downtown'
p286
I297
sS'chimmichuri'
p287
I298
sS'Warm'
p288
I299
sS'millennium'
p289
I300
sS'NY'
p290
I3087
sS'VILLAGE'
p291
I301
sS'heavenly'
p292
I302
sS'got'
p293
I303
sS'newly'
p294
I304
sS'size'
p295
I1265
sS'Authentic'
p296
I306
sS'grease'
p297
I307
sS'turning'
p298
I308
sS'BTs'
p299
I309
sS'threatened'
p300
I310
sS'given'
p301
I311
sS'free'
p302
I312
sS'Planet'
p303
I313
sS'Roth'
p304
I314
sS'starter'
p305
I2881
sS'delightfully'
p306
I316
sS'fixe'
p307
I317
sS'wanted'
p308
I318
sS'Egg'
p309
I319
sS'lollipop'
p310
I320
sS'greasy'
p311
I321
sS'husbands'
p312
I2481
sS'enormous'
p313
I323
sS'ate'
p314
I324
sS'created'
p315
I325
sS'inexpensive'
p316
I327
sS'Myagi'
p317
I328
sS'Servers'
p318
I329
sS'takeout'
p319
I330
sS'lousy'
p320
I331
sS'choices'
p321
I3329
sS'speedy'
p322
I332
sS'eatting'
p323
I333
sS'TIME'
p324
I335
sS'Girlfriend'
p325
I336
sS'moving'
p326
I1648
sS'unappreciative'
p327
I338
sS'Cafe'
p328
I339
sS'loud'
p329
I340
sS'chopped'
p330
I341
sS'not-so-frequent'
p331
I342
sS'already'
p332
I343
sS'tilapia'
p333
I66
sS'grade'
p334
I345
sS'Please'
p335
I346
sS'Creative'
p336
I347
sS'lettuce'
p337
I348
sS'Going'
p338
I349
sS'Volare'
p339
I350
sS'another'
p340
I351
sS'infused'
p341
I2486
sS'hear'
p342
I353
sS'thick'
p343
I354
sS'170'
p344
I355
sS'dinning'
p345
I3401
sS'rated'
p346
I357
sS'Cozy'
p347
I358
sS'service'
p348
I359
sS'spinach'
p349
I360
sS'top'
p350
I361
sS'engagement'
p351
I362
sS'girls'
p352
I363
sS'monring'
p353
I364
sS'plentiful'
p354
I365
sS'listed'
p355
I366
sS'bitter'
p356
I368
sS'dogs'
p357
I369
sS'ceiling'
p358
I371
sS'Prune'
p359
I372
sS'Onion'
p360
I373
sS'LLOOVVE'
p361
I375
sS'BBE'
p362
I376
sS'serve'
p363
I377
sS'took'
p364
I378
sS'tee'
p365
I1873
sS'atmoshpere'
p366
I380
sS'noodle'
p367
I2490
sS'facie'
p368
I3077
sS'somewhat'
p369
I382
sS'Such'
p370
I1277
sS'wasted'
p371
I384
sS'shortly'
p372
I385
sS'BBQ'
p373
I388
sS'Beautiful'
p374
I389
sS'perfectly'
p375
I3097
sS'target'
p376
I390
sS'frankly'
p377
I391
sS'sceney'
p378
I1725
sS'hike'
p379
I393
sS'crave'
p380
I394
sS'seated'
p381
I395
sS'preparation'
p382
I396
sS'matter'
p383
I397
sS'louder'
p384
I398
sS'friend'
p385
I1279
sS'Sea'
p386
I400
sS'feeling'
p387
I401
sS'minus'
p388
I402
sS'vegatables'
p389
I403
sS'runner'
p390
I404
sS'modern'
p391
I405
sS'mind'
p392
I406
sS'mine'
p393
I407
sS'drip'
p394
I408
sS'raw'
p395
I409
sS'further'
p396
I1881
sS'seen'
p397
I411
sS'seem'
p398
I412
sS'mins'
p399
I413
sS'mint'
p400
I414
sS'runned'
p401
I415
sS'relatively'
p402
I416
sS'Then'
p403
I417
sS'Egyptian'
p404
I418
sS'thoroughly'
p405
I419
sS'NEVER'
p406
I420
sS'-'
p407
I421
sS'casual'
p408
I1884
sS'recommended'
p409
I423
sS'causing'
p410
I424
sS'defiantly'
p411
I425
sS'They'
p412
I426
sS'Russe'
p413
I427
sS'Ask'
p414
I428
sS'blue'
p415
I429
sS'though'
p416
I430
sS'thrilled'
p417
I431
sS'Wish'
p418
I432
sS'what'
p419
I1886
sS'mashed'
p420
I435
sS'welll'
p421
I436
sS'8.00'
p422
I437
sS'regular'
p423
I438
sS'mouth'
p424
I439
sS'Roosevelt'
p425
I3105
sS'plenty'
p426
I441
sS'Went'
p427
I443
sS'thougt'
p428
I444
sS'Side'
p429
I445
sS'Teodora'
p430
I446
sS'up'
p431
I2665
sS'dog'
p432
I447
sS'appalled'
p433
I294
sS'Single'
p434
I449
sS'definitely'
p435
I450
sS'section'
p436
I1889
sS'came'
p437
I453
sS'Prixe'
p438
I454
sS'overpack'
p439
I641
sS'beaten'
p440
I455
sS'overpriced'
p441
I456
sS'Union'
p442
I457
sS'penang'
p443
I458
sS'tequila'
p444
I459
sS'random'
p445
I460
sS'prix'
p446
I461
sS'stepping'
p447
I462
sS'subtle'
p448
I464
sS'enjoyed'
p449
I465
sS'toast'
p450
I466
sS'busy'
p451
I467
sS'quaint'
p452
I468
sS'Big'
p453
I469
sS'weekends'
p454
I470
sS'sugar'
p455
I471
sS'theme'
p456
I472
sS'touched'
p457
I473
sS'rich'
p458
I474
sS'Pomodori'
p459
I2838
sS'heartily'
p460
I475
sS'Fixe'
p461
I477
sS'rice'
p462
I478
sS'personality'
p463
I479
sS'do'
p464
I481
sS'Noodle'
p465
I482
sS'10'
p466
I1297
sS'Nevertheless'
p467
I484
sS'etc.'
p468
I2670
sS'stop'
p469
I485
sS'13'
p470
I1298
sS'appetizer'
p471
I487
sS'candle-light'
p472
I488
sS'uncooked'
p473
I490
sS'despite'
p474
I491
sS'Quick'
p475
I492
sS'Love'
p476
I1300
sS'nasty'
p477
I494
sS'relish'
p478
I495
sS'Dumbfoundingly'
p479
I496
sS'bar'
p480
I497
sS'off'
p481
I3372
sS'Downstairs'
p482
I498
sS'Over'
p483
I499
sS'twice'
p484
I500
sS'bad'
p485
I501
sS'three-year'
p486
I502
sS'after-theatre'
p487
I1116
sS'grilled'
p488
I504
sS'steak'
p489
I505
sS'steal'
p490
I1142
sS'thanks'
p491
I507
sS'blew'
p492
I508
sS'HAVE'
p493
I2509
sS'fair'
p494
I510
sS'seabass'
p495
I511
sS'fluffy'
p496
I513
sS'Zucchero'
p497
I515
sS'decided'
p498
I516
sS'miserable'
p499
I518
sS'terrine'
p500
I519
sS'noodles'
p501
I520
sS'Dogs'
p502
I521
sS'best'
p503
I522
sS'vapidly'
p504
I523
sS'diggest'
p505
I524
sS'said'
p506
I525
sS'Run'
p507
I526
sS'lots'
p508
I528
sS'away'
p509
I529
sS'gentleman'
p510
I530
sS'Took'
p511
I531
sS'BUT'
p512
I532
sS'continually'
p513
I533
sS'Water'
p514
I534
sS'unable'
p515
I535
sS'Prices'
p516
I536
sS'drawn'
p517
I537
sS'mid-town'
p518
I538
sS'we'
p519
I539
sS'men'
p520
I540
sS'terms'
p521
I541
sS'off-the-beaten'
p522
I542
sS'wo'
p523
I543
sS'literally'
p524
I3449
sS'were'
p525
I1309
sS'however'
p526
I545
sS'Bronx'
p527
I546
sS'blasted'
p528
I547
sS'kitchen'
p529
I548
sS'faced'
p530
I549
sS'received'
p531
I550
sS'accident'
p532
I551
sS'country'
p533
I553
sS'jelly'
p534
I554
sS'against'
p535
I555
sS'hummus'
p536
I556
sS'receives'
p537
I557
sS'surprises'
p538
I2516
sS'pita'
p539
I558
sS'requests'
p540
I559
sS'argue'
p541
I560
sS'freshest'
p542
I561
sS'asked'
p543
I562
sS'suggest'
p544
I564
sS'self-respect'
p545
I565
sS'appeared'
p546
I566
sS'character'
p547
I567
sS'wait-staff'
p548
I568
sS'2nd'
p549
I569
sS'tons'
p550
I571
sS'towels'
p551
I572
sS'loaded'
p552
I573
sS'refill'
p553
I574
sS'trust'
p554
I575
sS'speak'
p555
I576
sS'aback'
p556
I577
sS'bathroom'
p557
I578
sS'incomparable'
p558
I1097
sS'beef'
p559
I581
sS'frist'
p560
I582
sS'binge'
p561
I583
sS'three'
p562
I584
sS'tiny'
p563
I585
sS'.'
p564
I586
sS'beer'
p565
I587
sS'much'
p566
I588
sS'basic'
p567
I589
sS'expected'
p568
I590
sS'fry'
p569
I591
sS'dozens'
p570
I592
sS'incompetent'
p571
I593
sS'threw'
p572
I594
sS'life'
p573
I596
sS'families'
p574
I597
sS'recomend'
p575
I598
sS'relaxing'
p576
I599
sS'Tokyo'
p577
I600
sS'accidently'
p578
I2445
sS'Hands'
p579
I2523
sS'shoestring'
p580
I2524
sS'substance'
p581
I602
sS'personally'
p582
I603
sS'worked'
p583
I605
sS'Italian'
p584
I3220
sS'imazingly'
p585
I606
sS'exception'
p586
I607
sS'definetly'
p587
I23
sS'Cypriot'
p588
I609
sS'semi-private'
p589
I2696
sS'Ca'
p590
I610
sS'Sushi'
p591
I611
sS'say'
p592
I1322
sS'n'
p593
I613
sS'near'
p594
I62
sS'melted'
p595
I615
sS'suppose'
p596
I616
sS'stopping'
p597
I617
sS'Tamarind'
p598
I618
sS'balance'
p599
I619
sS'smoky'
p600
I1208
sS'Gross'
p601
I621
sS'skiline'
p602
I622
sS'On'
p603
I2528
sS'dumplings'
p604
I624
sS'Menu'
p605
I625
sS'is'
p606
I626
sS'dumped'
p607
I627
sS'it'
p608
I629
sS'LOL'
p609
I630
sS'Surprisingly'
p610
I631
sS'cant'
p611
I632
sS'dizzy'
p612
I633
sS'upscale'
p613
I634
sS'in'
p614
I635
sS'Ok'
p615
I2530
sS'if'
p616
I637
sS'anti-pasta'
p617
I638
sS'bottles'
p618
I639
sS'portobello'
p619
I640
sS'occupied'
p620
I628
sS'make'
p621
I642
sS'Pam'
p622
I3138
sS'drawback'
p623
I645
sS'belly'
p624
I646
sS'big'
p625
I2534
sS'plates'
p626
I648
sS'several'
p627
I649
sS'Taking'
p628
I2269
sS'european'
p629
I651
sS'fairly'
p630
I652
sS'Maybe'
p631
I1234
sS'hang'
p632
I654
sS'evil'
p633
I655
sS'Sty-town'
p634
I656
sS'delight'
p635
I657
sS'Wonderland'
p636
I658
sS'VT'
p637
I659
sS'characters'
p638
I661
sS'positives'
p639
I662
sS'tuna'
p640
I663
sS'EAT'
p641
I664
sS'kept'
p642
I665
sS'hopping'
p643
I666
sS'youre'
p644
I667
sS'Mine'
p645
I668
sS'deal'
p646
I740
sS'tho'
p647
I670
sS'burgers'
p648
I671
sS'Manager'
p649
I672
sS'otherworldly'
p650
I673
sS'greatest'
p651
I674
sS'mother'
p652
I433
sS'Fornino'
p653
I676
sS'excellent-the'
p654
I677
sS'the'
p655
I678
sS'smoked'
p656
I679
sS'left'
p657
I680
sS'seasonal'
p658
I681
sS'opinions'
p659
I682
sS'Thank'
p660
I684
sS'just'
p661
I685
sS'THAT'
p662
I686
sS'gods'
p663
I687
sS'palce'
p664
I688
sS'Williamsburg'
p665
I689
sS'Consistently'
p666
I691
sS'BROOKLYN'
p667
I692
sS'thumbs'
p668
I693
sS'lassi'
p669
I694
sS'yes'
p670
I695
sS'Zenkichi'
p671
I696
sS'yet'
p672
I697
sS'previous'
p673
I698
sS'terrific'
p674
I1334
sS'instance'
p675
I3149
sS'tagline'
p676
I701
sS'old-fashioned'
p677
I702
sS'had'
p678
I703
sS'Astoria'
p679
I704
sS'shout'
p680
I705
sS'spread'
p681
I706
sS'board'
p682
I707
sS'menu-fare'
p683
I708
sS'has'
p684
I608
sS'gave'
p685
I710
sS'casually'
p686
I711
sS'Restaurant'
p687
I712
sS'mayo'
p688
I713
sS'Alice'
p689
I714
sS'Corona'
p690
I715
sS'Try'
p691
I716
sS'fusion'
p692
I717
sS'discreet'
p693
I718
sS'dreamy'
p694
I719
sS'Emilio'
p695
I720
sS'judge'
p696
I721
sS'apart'
p697
I722
sS'unique'
p698
I723
sS'burnt'
p699
I724
sS'Wine'
p700
I725
sS'sliced'
p701
I726
sS'quickly'
p702
I3491
sS'flavoring'
p703
I727
sS'gift'
p704
I728
sS'55'
p705
I729
sS'50'
p706
I730
sS'specific'
p707
I731
sS'overrated'
p708
I732
sS'sparse'
p709
I733
sS'night'
p710
I734
sS'hung'
p711
I735
sS'meats'
p712
I736
sS'Again'
p713
I737
sS'right'
p714
I738
sS'old'
p715
I739
sS'crowd'
p716
I814
sS'people'
p717
I741
sS'successfully'
p718
I742
sS'somehow'
p719
I743
sS'Tiny'
p720
I744
sS'unnecessary'
p721
I745
sS'RAVE'
p722
I746
sS'Much'
p723
I747
sS'hassle'
p724
I748
sS'advertise'
p725
I749
sS'tradional'
p726
I750
sS'perfected'
p727
I751
sS'confusing'
p728
I752
sS'HEAVEN'
p729
I753
sS'humor'
p730
I754
sS'Suan'
p731
I755
sS'for'
p732
I756
sS'bottom'
p733
I757
sS'Strokes'
p734
I758
sS'phenomenal'
p735
I759
sS'Nobody'
p736
I760
sS'/'
p737
I914
sS'creative'
p738
I917
sS'everything'
p739
I763
sS'asking'
p740
I765
sS'maitre'
p741
I766
sS'hollondaise'
p742
I767
sS'Ley'
p743
I768
sS'carte'
p744
I769
sS'He'
p745
I770
sS'who'
p746
I3159
sS'tartar'
p747
I772
sS'Admittedly'
p748
I773
sS'disappeared'
p749
I774
sS'discount'
p750
I775
sS'Place'
p751
I776
sS'paid'
p752
I777
sS'stylish'
p753
I2557
sS'dissapointment'
p754
I779
sS'memorable'
p755
I780
sS'super'
p756
I781
sS'First'
p757
I782
sS'trophy'
p758
I783
sS'yelling'
p759
I1078
sS'inedible'
p760
I785
sS'UWS'
p761
I786
sS'ribs'
p762
I787
sS'valentines'
p763
I1096
sS'sizzling'
p764
I789
sS'dinner'
p765
I790
sS'dined'
p766
I791
sS'plus'
p767
I792
sS'afternoon'
p768
I793
sS'Still'
p769
I795
sS'octopus'
p770
I1230
sS'Hamburgers'
p771
I1154
sS'SEASONAL'
p772
I799
sS'whats'
p773
I800
sS'SERVICE'
p774
I801
sS'pays'
p775
I802
sS'Make'
p776
I803
sS'RECOMMEND'
p777
I1354
sS'soo'
p778
I805
sS'son'
p779
I806
sS'down'
p780
I807
sS'Judging'
p781
I808
sS'soy'
p782
I809
sS'honored'
p783
I810
sS'Korean'
p784
I811
sS'wan'
p785
I812
sS'Bombay'
p786
I3055
sS'Beef'
p787
I669
sS'pre-sliced'
p788
I815
sS'amazingly'
p789
I816
sS'Hand'
p790
I817
sS'gig'
p791
I818
sS'absolutely'
p792
I2561
sS'fought'
p793
I820
sS'editor'
p794
I821
sS'way'
p795
I822
sS'call'
p796
I823
sS'Tuna'
p797
I824
sS'was'
p798
I825
sS'happy'
p799
I826
sS'fork'
p800
I827
sS'head'
p801
I828
sS'form'
p802
I1329
sS'snowy'
p803
I830
sS'magnificent'
p804
I2563
sS'6'
p805
I1940
sS'Rocks'
p806
I833
sS'eater'
p807
I2590
sS'heat'
p808
I834
sS'understandable'
p809
I916
sS'udon'
p810
I836
sS'risottos'
p811
I837
sS'true'
p812
I838
sS'refreshing'
p813
I3164
sS'portions'
p814
I840
sS'inside'
p815
I841
sS'blantently'
p816
I842
sS'bargain'
p817
I843
sS'ruined'
p818
I844
sS'nicest'
p819
I845
sS'sapphire'
p820
I846
sS'servings'
p821
I847
sS'unusually'
p822
I849
sS'average'
p823
I1362
sS'expresso'
p824
I852
sS'sticks'
p825
I853
sS'classic'
p826
I854
sS'Personal'
p827
I855
sS'Some'
p828
I1880
sS'Hudson'
p829
I857
sS'Crust'
p830
I858
sS'hungry'
p831
I859
sS"''"
p832
I860
sS'calzones'
p833
I861
sS'not-so-little'
p834
I862
sS'single-handedly'
p835
I863
sS'request'
p836
I3166
sS'Stepped'
p837
I864
sS'annoying'
p838
I865
sS'check'
p839
I866
sS'Wretched'
p840
I867
sS'no'
p841
I868
sS'relax'
p842
I869
sS'when'
p843
I870
sS'handed'
p844
I871
sS'Possibly'
p845
I872
sS'setting'
p846
I873
sS'holding'
p847
I874
sS'test'
p848
I875
sS'empy'
p849
I2576
sS'nt'
p850
I877
sS'roll'
p851
I878
sS"'s"
p852
I879
sS'Romantic'
p853
I880
sS'surprise'
p854
I881
sS'felt'
p855
I883
sS'diet'
p856
I884
sS'transported'
p857
I885
sS"'d"
p858
I886
sS'and/or'
p859
I2579
sS'Weehawken'
p860
I887
sS'professional'
p861
I1370
sS"'m"
p862
I888
sS'pizzas'
p863
I889
sS'strips'
p864
I2477
sS'died'
p865
I890
sS'99'
p866
I891
sS'Roxy'
p867
I892
sS'longer'
p868
I893
sS'apology'
p869
I894
sS'potato'
p870
I1750
sS'WEST'
p871
I896
sS'together'
p872
I897
sS'jacket'
p873
I898
sS'pet'
p874
I2570
sS'reception'
p875
I900
sS'time'
p876
I901
sS'push'
p877
I1288
sS'Chicken'
p878
I903
sS'others'
p879
I2821
sS'basically'
p880
I1954
sS'concept'
p881
I905
sS'managed'
p882
I906
sS'regulars'
p883
I907
sS'reviewers'
p884
I908
sS'particular'
p885
I1956
sS'roe'
p886
I910
sS'silverware'
p887
I911
sS'Grilled'
p888
I1957
sS'manager'
p889
I913
sS'ice'
p890
I761
sS'skin'
p891
I915
sS'Quite'
p892
I762
sS'Pacifico'
p893
I918
sS'certainly'
p894
I919
sS'Chennai'
p895
I920
sS'yummy'
p896
I921
sS'Dal'
p897
I922
sS'Definately'
p898
I924
sS'father'
p899
I1923
sS'disgusting'
p900
I926
sS'Truly'
p901
I927
sS'environment'
p902
I928
sS'0'
p903
I929
sS'charge'
p904
I117
sS'unpleasant'
p905
I931
sS'SEA'
p906
I1276
sS'pulitzer'
p907
I140
sS'Day'
p908
I933
sS'bestt'
p909
I934
sS'WEEK'
p910
I935
sS'Grill'
p911
I936
sS'icing'
p912
I937
sS'advantage'
p913
I1758
sS'Everytime'
p914
I939
sS'thawed'
p915
I940
sS'seemingly'
p916
I941
sS'choice'
p917
I942
sS'wallets'
p918
I943
sS'farro'
p919
I944
sS'Bison'
p920
I945
sS'stays'
p921
I946
sS'cook'
p922
I947
sS'bartender'
p923
I142
sS'trouble'
p924
I949
sS'Where'
p925
I950
sS'minute'
p926
I951
sS'cool'
p927
I952
sS'dim'
p928
I953
sS'mahi'
p929
I954
sS'impressive'
p930
I955
sS'Just'
p931
I956
sS'presented'
p932
I957
sS'did'
p933
I958
sS'die'
p934
I959
sS'posts'
p935
I960
sS'suprised'
p936
I961
sS'standards'
p937
I962
sS'specials'
p938
I963
sS'solved'
p939
I964
sS'settle'
p940
I2130
sS'Cantonese'
p941
I966
sS'quick'
p942
I967
sS'sidewalk'
p943
I968
sS'upper'
p944
I969
sS'pork'
p945
I970
sS'tremendously'
p946
I971
sS'says'
p947
I972
sS'regret'
p948
I973
sS'seasoning'
p949
I974
sS'sigh'
p950
I975
sS'sign'
p951
I976
sS'professionalism'
p952
I977
sS'cost'
p953
I978
sS'decour'
p954
I979
sS'comforting'
p955
I980
sS'run'
p956
I1892
sS'Rice'
p957
I982
sS'chicken'
p958
I3187
sS'Red'
p959
I984
sS'drinks'
p960
I985
sS'adds'
p961
I987
sS'appear'
p962
I988
sS'heaviness'
p963
I990
sS'unheralded'
p964
I991
sS'celebrated'
p965
I992
sS'encrusted'
p966
I993
sS'Inn'
p967
I1967
sS'Worth'
p968
I3189
sS'current'
p969
I996
sS'Cheesesticks'
p970
I2597
sS'goes'
p971
I999
sS'During'
p972
I1000
sS'MUST'
p973
I3191
sS'boost'
p974
I1002
sS'one-hour'
p975
I2476
sS'filled'
p976
I1003
sS'Me'
p977
I1004
sS'YUCK'
p978
I1005
sS'tortelini'
p979
I1006
sS'Brahma'
p980
I1007
sS'french'
p981
I1008
sS'water'
p982
I1009
sS'Hoboken'
p983
I1012
sS'alone'
p984
I1013
sS'based'
p985
I3193
sS'along'
p986
I1015
sS'My'
p987
I1017
sS'appears'
p988
I1018
sS'change'
p989
I1019
sS'wait'
p990
I1020
sS'Slope'
p991
I1021
sS'thirty'
p992
I1022
sS'brilliant'
p993
I1023
sS'EVER'
p994
I1024
sS'guilty'
p995
I58
sS'atomosphere'
p996
I1026
sS'exemplifies'
p997
I1027
sS'Gnocchi'
p998
I1975
sS'suggestion'
p999
I1029
sS'usually'
p1000
I1030
sS'hospitality'
p1001
I1031
sS'weird'
p1002
I1032
sS'entrees'
p1003
I1033
sS'MY'
p1004
I1034
sS'Maine'
p1005
I1035
sS'genuinely'
p1006
I1036
sS'teenage'
p1007
I1037
sS'dissappointed'
p1008
I1038
sS'extra'
p1009
I1039
sS'cheeseburger'
p1010
I1396
sS'When'
p1011
I1041
sS'pleasantly'
p1012
I3371
sS'1st'
p1013
I1042
sS'prompt'
p1014
I1978
sS'Mermaid'
p1015
I1044
sS'flavors'
p1016
I1046
sS'crammed'
p1017
I1047
sS'handled'
p1018
I1048
sS'working'
p1019
I1049
sS'sake'
p1020
I1050
sS'positive'
p1021
I1051
sS'angry'
p1022
I1052
sS'give'
p1023
I159
sS'visit'
p1024
I1054
sS'!!!!!!'
p1025
I1055
sS'creamy'
p1026
I1056
sS'live'
p1027
I1057
sS'going'
p1028
I1400
sS'wonderfully'
p1029
I1059
sS'black'
p1030
I1401
sS'amazin'
p1031
I2593
sS'shooed'
p1032
I1063
sS'introducing'
p1033
I1064
sS'``'
p1034
I1065
sS'sharing'
p1035
I1066
sS'lawns'
p1036
I1067
sS'one-two'
p1037
I1068
sS'Opera'
p1038
I1123
sS'pour-your-own'
p1039
I1070
sS'acceptable'
p1040
I1071
sS'chocolate'
p1041
I1073
sS'beers'
p1042
I1074
sS'Indo'
p1043
I1076
sS'effort'
p1044
I1077
sS'benches'
p1045
I784
sS'1/26'
p1046
I1079
sS'pumkin'
p1047
I1080
sS'edible'
p1048
I1081
sS'Family'
p1049
I1082
sS'originally'
p1050
I1083
sS'boarderline'
p1051
I1084
sS'reviews'
p1052
I1085
sS'soup'
p1053
I1086
sS'sour'
p1054
I1087
sS'values'
p1055
I1088
sS'can'
p1056
I1089
sS'co-workers'
p1057
I1090
sS'following'
p1058
I1091
sS'Our'
p1059
I1092
sS'arrive'
p1060
I1093
sS'most'
p1061
I2257
sS'heart'
p1062
I1094
sS'Awsome'
p1063
I1095
sS'months'
p1064
I788
sS'hears'
p1065
I1098
sS'Ingredients'
p1066
I1099
sS'awesome'
p1067
I1100
sS'sense'
p1068
I1988
sS'taste-I'
p1069
I1102
sS'heard'
p1070
I1103
sS'Fritte'
p1071
I2224
sS'chin'
p1072
I1104
sS'dropped'
p1073
I1105
sS'allowed'
p1074
I1106
sS'chic'
p1075
I1107
sS'Brewery'
p1076
I1108
sS'Pizza'
p1077
I1109
sS'pink'
p1078
I1110
sS'winter'
p1079
I1112
sS'savor'
p1080
I1113
sS'spreads'
p1081
I387
sS'sudden'
p1082
I1968
sS'meager'
p1083
I1115
sS'lounge'
p1084
I1117
sS'Whether'
p1085
I604
sS'flank'
p1086
I1119
sS'pure'
p1087
I1120
sS'speaks'
p1088
I1121
sS'Their'
p1089
I2628
sS'economy'
p1090
I1122
sS'??'
p1091
I190
sS'unbelievable'
p1092
I1124
sS'Mahi'
p1093
I1125
sS'whacked'
p1094
I1126
sS'coming'
p1095
I2016
sS'may'
p1096
I1128
sS'Always'
p1097
I1129
sS'Average'
p1098
I1130
sS'spot'
p1099
I1131
sS'unobtrusive'
p1100
I1132
sS'cooked-to-perfection'
p1101
I1133
sS'muttering'
p1102
I1134
sS'birthday'
p1103
I1135
sS'mad'
p1104
I1136
sS'Puree'
p1105
I1137
sS'Bisque'
p1106
I2056
sS'mai'
p1107
I1138
sS'end'
p1108
I1139
sS'guys'
p1109
I1141
sS'muggy'
p1110
I1143
sS'inquired'
p1111
I3533
sS'remember'
p1112
I1145
sS'conscious'
p1113
I1146
sS'slightly'
p1114
I796
sS'amuse'
p1115
I1148
sS'complaining'
p1116
I1151
sS'switch'
p1117
I1152
sS'so'
p1118
I1153
sS'Best'
p1119
I798
sS'arrived'
p1120
I2483
sS'se'
p1121
I1155
sS'typical'
p1122
I1156
sS'drunken'
p1123
I1157
sS'cute'
p1124
I1158
sS'serving'
p1125
I1159
sS'scammers'
p1126
I1160
sS'indeed'
p1127
I1161
sS'years'
p1128
I1163
sS'ended'
p1129
I1164
sS'accolades'
p1130
I1165
sS'terrace'
p1131
I1166
sS'cold'
p1132
I1167
sS'still'
p1133
I1168
sS'THE'
p1134
I3217
sS'group'
p1135
I1170
sS'thank'
p1136
I1171
sS'quesadilla'
p1137
I1508
sS'interesting'
p1138
I1173
sS'bagels'
p1139
I1174
sS'appetizers'
p1140
I1175
sS'amazing'
p1141
I1176
sS'attraction'
p1142
I1177
sS'window'
p1143
I1178
sS'offers'
p1144
I1179
sS'gem'
p1145
I1413
sS'model/waitress'
p1146
I1181
sS'stir-fried'
p1147
I1182
sS'policy'
p1148
I1183
sS'Once'
p1149
I1184
sS'Wait'
p1150
I1185
sS'eye-pleasing'
p1151
I2862
sS'views'
p1152
I1186
sS'AVOID'
p1153
I1187
sS'retrain'
p1154
I1188
sS'lunch'
p1155
I1189
sS'Right'
p1156
I1416
sS'try'
p1157
I2777
sS'She'
p1158
I1191
sS'half'
p1159
I1192
sS'not'
p1160
I1193
sS'feature'
p1161
I1194
sS'bgel'
p1162
I1195
sS'now'
p1163
I1196
sS'hall'
p1164
I1197
sS'wont'
p1165
I1198
sS'Co.'
p1166
I2463
sS'name'
p1167
I1199
sS'Maggot'
p1168
I34
sS'Skip'
p1169
I1201
sS'drop'
p1170
I1202
sS'food-quality'
p1171
I1203
sS'outrageously'
p1172
I1204
sS'Simply'
p1173
I1205
sS'rock'
p1174
I1206
sS'en'
p1175
I1207
sS'grat'
p1176
I3224
sS'richly'
p1177
I1210
sS'year'
p1178
I1211
sS'happen'
p1179
I1212
sS'Save'
p1180
I1213
sS'salads'
p1181
I1214
sS'adequately'
p1182
I1215
sS'Edamame'
p1183
I1216
sS'COMPLAINT'
p1184
I1217
sS'MADE'
p1185
I1218
sS'rude'
p1186
I2009
sS'space'
p1187
I1220
sS'hastily'
p1188
I1221
sS'looking'
p1189
I1222
sS'attracted'
p1190
I1223
sS'suggesting'
p1191
I1224
sS'pizzeria'
p1192
I1225
sS'correct'
p1193
I1226
sS'shows'
p1194
I1227
sS'earlier'
p1195
I1229
sS'tempura'
p1196
I1231
sS'ocasionally'
p1197
I1232
sS'Sometimes'
p1198
I1233
sS'cart'
p1199
I1235
sS'walnuts'
p1200
I1236
sS'unfriendly'
p1201
I451
sS'Either'
p1202
I1238
sS'remainder'
p1203
I1239
sS'THe'
p1204
I3228
sS'card'
p1205
I1241
sS'care'
p1206
I1242
sS'If'
p1207
I1579
sS'selections'
p1208
I1244
sS'waiter'
p1209
I1245
sS'tasting'
p1210
I2638
sS'thing'
p1211
I1247
sS'place'
p1212
I1248
sS'pepperoni'
p1213
I1249
sS'view'
p1214
I3230
sS'star'
p1215
I3572
sS'think'
p1216
I1250
sS'waited'
p1217
I1251
sS'first'
p1218
I1252
sS'Even'
p1219
I210
sS'cheese'
p1220
I1254
sS'saving'
p1221
I1255
sS'Vanison'
p1222
I1256
sS'There'
p1223
I1257
sS'yourself'
p1224
I253
sS'clumsy'
p1225
I1259
sS'Black'
p1226
I274
sS'long'
p1227
I2640
sS'impossible'
p1228
I1262
sS'drove'
p1229
I1263
sS'open'
p1230
I1264
sS'cheerfully'
p1231
I305
sS'city'
p1232
I1266
sS'little'
p1233
I1267
sS'necessarily'
p1234
I1268
sS'district'
p1235
I1269
sS'bite'
p1236
I1271
sS'plastic'
p1237
I1272
sS'anyone'
p1238
I1273
sS'cooling'
p1239
I1274
sS'2'
p1240
I1275
sS'stuffed'
p1241
I998
sS'masala'
p1242
I383
sS'white'
p1243
I1278
sS'speaking'
p1244
I399
sS'gives'
p1245
I1280
sS'eyes'
p1246
I1281
sS'that'
p1247
I1283
sS'Excellent'
p1248
I2643
sS'All'
p1249
I193
sS'ridiculous'
p1250
I1287
sS'fooled'
p1251
I1289
sS'thai'
p1252
I1290
sS'grunt'
p1253
I1291
sS'undoubtedly'
p1254
I1292
sS'than'
p1255
I1293
sS'specify'
p1256
I1294
sS'boyfriend'
p1257
I1295
sS'11'
p1258
I1296
sS'Lanterna'
p1259
I483
sS'Atmosphere'
p1260
I486
sS'12'
p1261
I489
sS'15'
p1262
I493
sS'14'
p1263
I1301
sS'17'
p1264
I1302
sS'course'
p1265
I3222
sS'18'
p1266
I1303
sS'midtown'
p1267
I1305
sS'future'
p1268
I1306
sS'venture'
p1269
I1308
sS'aesthetic'
p1270
I544
sS'gigantic'
p1271
I1310
sS"'ve"
p1272
I2573
sS'and'
p1273
I1313
sS'DO'
p1274
I1314
sS'coconut'
p1275
I1315
sS'DJ'
p1276
I1316
sS'tasted'
p1277
I1317
sS'10-15'
p1278
I1318
sS'Patroon'
p1279
I1319
sS'voices'
p1280
I1321
sS'tastes'
p1281
I612
sS'rent'
p1282
I1323
sS'saw'
p1283
I1324
sS'any'
p1284
I1325
sS'sat'
p1285
I1326
sS'Do'
p1286
I1327
sS'cirspy'
p1287
I1328
sS'offering'
p1288
I829
sS'Di'
p1289
I1330
sS'lumps'
p1290
I1331
sS'offer'
p1291
I1332
sS'shocked'
p1292
I1333
sS'note'
p1293
I699
sS'dining'
p1294
I1335
sS'ideal'
p1295
I1336
sS'Fabulous'
p1296
I1337
sS'hookah'
p1297
I1338
sS'take'
p1298
I1339
sS'interior'
p1299
I1340
sS'green'
p1300
I1341
sS'concern'
p1301
I1439
sS'begin'
p1302
I1343
sS'sure'
p1303
I1344
sS'normal'
p1304
I1345
sS'arguing'
p1305
I1346
sS'cheesecake'
p1306
I1347
sS'price'
p1307
I1348
sS'knew'
p1308
I1349
sS'buffet'
p1309
I1350
sS'Wong'
p1310
I1352
sS'importantly'
p1311
I1353
sS'stormed'
p1312
I804
sS'complaints'
p1313
I1355
sS'overlooked'
p1314
I2455
sS'rivals'
p1315
I2408
sS'planning'
p1316
I3186
sS'forever'
p1317
I1357
sS'Steamed'
p1318
I1358
sS'especially'
p1319
I1359
sS'surprising'
p1320
I1360
sS'gyro'
p1321
I764
sS'seafood'
p1322
I850
sS'napkin'
p1323
I1363
sS'drive'
p1324
I1364
sS'Chef'
p1325
I1365
sS'deportment'
p1326
I1366
sS'sunset'
p1327
I1368
sS'shut-down'
p1328
I1369
sS'waitstaffs'
p1329
I835
sS'salt'
p1330
I1371
sS'quantity'
p1331
I1373
sS'replied'
p1332
I2038
sS'walking'
p1333
I1375
sS'show'
p1334
I1376
sS'lotus'
p1335
I1377
sS'mains'
p1336
I1378
sS'cheap'
p1337
I1379
sS'sites'
p1338
I1444
sS'discovered'
p1339
I1381
sS'inconsistent'
p1340
I1382
sS'teamed'
p1341
I1383
sS'corner'
p1342
I1384
sS'aggressive'
p1343
I1385
sS'superb'
p1344
I3251
sS'calamari'
p1345
I1387
sS'Roll'
p1346
I1388
sS'cheeseburgers'
p1347
I1389
sS'ground'
p1348
I1390
sS'We'
p1349
I1392
sS'slow'
p1350
I1393
sS'icecream'
p1351
I3252
sS'nodded'
p1352
I1395
sS'proportion'
p1353
I1040
sS'enough'
p1354
I1445
sS'short'
p1355
I2024
sS'Purple'
p1356
I2042
sS'only'
p1357
I1399
sS'wood'
p1358
I1058
sS'Worst'
p1359
I1061
sS'survice'
p1360
I1402
sS'pastrami'
p1361
I1403
sS'get'
p1362
I1404
sS'jazz'
p1363
I1405
sS'HAD'
p1364
I1406
sS'Dokebi'
p1365
I1407
sS'truly'
p1366
I1408
sS'nearly'
p1367
I1409
sS'melt-in-your-mouth'
p1368
I1410
sS'clerks'
p1369
I1411
sS'celebrate'
p1370
I1180
sS'I/we'
p1371
I1415
sS'lollies'
p1372
I1190
sS'prima'
p1373
I1417
sS'Winnie'
p1374
I1419
sS'Food-awesome'
p1375
I1420
sS'isnt'
p1376
I2047
sS'absurdly'
p1377
I1422
sS'worried'
p1378
I1423
sS'Lobster'
p1379
I1425
sS'through'
p1380
I2048
sS'finishing'
p1381
I1428
sS'where'
p1382
I1430
sS'husband'
p1383
I1431
sS'ignored'
p1384
I1432
sS'imposing'
p1385
I1433
sS':-RRB-'
p1386
I1434
sS'seat'
p1387
I1435
sS'famine'
p1388
I1436
sS'us'
p1389
I1437
sS'wonder'
p1390
I1342
sS'fails'
p1391
I1440
sS'Hydes'
p1392
I1441
sS'review'
p1393
I1442
sS'glaze'
p1394
I1443
sS'justifies'
p1395
I1380
sS'3'
p1396
I1397
sS'Thai'
p1397
I1447
sS'Told'
p1398
I1448
sS'across'
p1399
I1449
sS'unappealing'
p1400
I1429
sS'affordable'
p1401
I1451
sS'24'
p1402
I2057
sS'notice'
p1403
I1453
sS'Inexpensive'
p1404
I3259
sS'comp'
p1405
I1455
sS'points'
p1406
I2695
sS'supermarket'
p1407
I1456
sS'HORRIBLE'
p1408
I3119
sS'diners'
p1409
I1457
sS'Each'
p1410
I1458
sS'comeback'
p1411
I1459
sS'come'
p1412
I1460
sS'undermine'
p1413
I1461
sS'dates'
p1414
I1462
sS'talented'
p1415
I1463
sS'Give'
p1416
I1465
sS'many'
p1417
I1466
sS'gimmicks'
p1418
I1467
sS'quiet'
p1419
I1468
sS'personal'
p1420
I1469
sS'patrons'
p1421
I1470
sS'disappointment'
p1422
I1471
sS'share'
p1423
I1981
sS'pureed'
p1424
I1472
sS'comes'
p1425
I1474
sS'duty'
p1426
I1475
sS'Guess'
p1427
I1476
sS'flavorless'
p1428
I1477
sS'color'
p1429
I1478
sS'effective'
p1430
I1479
sS'pot'
p1431
I1480
sS'Grapfruit'
p1432
I1481
sS'expectations'
p1433
I1482
sS'60'
p1434
I1483
sS'souvlaki'
p1435
I1484
sS'unassuming'
p1436
I370
sS'moreover'
p1437
I902
sS'crew'
p1438
I1487
sS'consider'
p1439
I1816
sS'considering'
p1440
I1488
sS'mare'
p1441
I1489
sS'olives'
p1442
I690
sS'cares'
p1443
I1491
sS'west'
p1444
I1492
sS'informed'
p1445
I1493
sS'vacation'
p1446
I1494
sS'But'
p1447
I1495
sS'Taxan'
p1448
I1496
sS'cared'
p1449
I1497
sS'Luckily'
p1450
I1498
sS'WORST'
p1451
I1499
sS'peaceful'
p1452
I1500
sS'ravioli'
p1453
I1501
sS'500'
p1454
I1502
sS'wants'
p1455
I1503
sS'chai'
p1456
I2678
sS'tasteless'
p1457
I1505
sS'Whenever'
p1458
I1506
sS'offered'
p1459
I1507
sS'SECOND'
p1460
I1509
sS'dramatic'
p1461
I1510
sS'ambience'
p1462
I2754
sS'foggy'
p1463
I1511
sS'mileau'
p1464
I1512
sS'attentive'
p1465
I1513
sS'COME'
p1466
I367
sS'former'
p1467
I137
sS'those'
p1468
I1516
sS'sound'
p1469
I1517
sS'myself'
p1470
I1518
sS'these'
p1471
I1519
sS'might'
p1472
I2072
sS'Somehow'
p1473
I1521
sS'resturant'
p1474
I1522
sS"n't"
p1475
I1523
sS'editorial'
p1476
I1524
sS'situation'
p1477
I1526
sS'Open'
p1478
I1527
sS'bathrooms'
p1479
I1530
sS'twists'
p1480
I1531
sS'coffee'
p1481
I1533
sS'couples'
p1482
I248
sS'AMEX'
p1483
I1535
sS'good'
p1484
I1536
sS'ambient'
p1485
I1537
sS'return'
p1486
I2077
sS'morning'
p1487
I3350
sS'mediocre'
p1488
I1539
sS'fastest'
p1489
I2956
sS'pastas'
p1490
I265
sS'MEAT'
p1491
I1541
sS'pay'
p1492
I1542
sS'Jazz'
p1493
I1543
sS'bowl'
p1494
I1544
sS'lava'
p1495
I1545
sS'trip'
p1496
I1546
sS'HOURS'
p1497
I1547
sS'pad'
p1498
I1548
sS'uncourteous'
p1499
I1549
sS'Slightly'
p1500
I3318
sS'frequented'
p1501
I1551
sS'Bloom'
p1502
I1552
sS'week'
p1503
I1553
sS'Patis'
p1504
I1554
sS'finish'
p1505
I1555
sS'booths'
p1506
I1556
sS'I'
p1507
I1557
sS'IS'
p1508
I1558
sS'IT'
p1509
I1559
sS'companion'
p1510
I1560
sS'Lasagna'
p1511
I2163
sS'two'
p1512
I1938
sS'disapointing'
p1513
I1563
sS'lemon'
p1514
I2688
sS'italian'
p1515
I3434
sS'totally'
p1516
I1565
sS'Bagels'
p1517
I1566
sS'complained'
p1518
I1567
sS'Hampton'
p1519
I1568
sS'theater'
p1520
I1569
sS'broth'
p1521
I2441
sS'floor'
p1522
I1570
sS'It'
p1523
I1571
sS'without'
p1524
I1572
sS'veal'
p1525
I1573
sS'bottle'
p1526
I1574
sS'In'
p1527
I1575
sS'easing'
p1528
I1576
sS'otherwise'
p1529
I3276
sS'amazed'
p1530
I1578
sS'ceilings'
p1531
I653
sS'summer'
p1532
I1580
sS'outdoor'
p1533
I1581
sS'steamed'
p1534
I1582
sS'Service'
p1535
I1583
sS'being'
p1536
I1584
sS'generally'
p1537
I1585
sS'dancers'
p1538
I1586
sS'rest'
p1539
I1587
sS'slimy'
p1540
I1588
sS'braised'
p1541
I282
sS'touch'
p1542
I1591
sS'flavor'
p1543
I1592
sS'Unhygienic'
p1544
I1593
sS'trimmings'
p1545
I463
sS'cordial'
p1546
I3539
sS'downright'
p1547
I1595
sS'Tristate'
p1548
I3279
sS'TO'
p1549
I1598
sS'thinking'
p1550
I1599
sS'rose'
p1551
I1600
sS'seems'
p1552
I1601
sS'except'
p1553
I1602
sS'WALKED'
p1554
I199
sS'lets'
p1555
I1604
sS'9:30'
p1556
I1605
sS'4'
p1557
I1606
sS'Although'
p1558
I1607
sS'constant'
p1559
I2674
sS'overcompensate'
p1560
I2427
sS'extensive'
p1561
I1609
sS'Change'
p1562
I1611
sS'real'
p1563
I1612
sS'around'
p1564
I1614
sS'spectacular'
p1565
I643
sS'read'
p1566
I1616
sS'concession'
p1567
I3477
sS'Tripe'
p1568
I1618
sS'Terrible'
p1569
I1619
sS'dark'
p1570
I1620
sS'Way'
p1571
I3436
sS'traffic'
p1572
I1622
sS'mom'
p1573
I1623
sS'world'
p1574
I1624
sS'postal'
p1575
I1625
sS'lady'
p1576
I480
sS'Ups'
p1577
I1627
sS'pizzaria'
p1578
I1628
sS'meat'
p1579
I1629
sS'medicore'
p1580
I1679
sS'smell'
p1581
I1630
sS'overhyped'
p1582
I1631
sS'greeting'
p1583
I1632
sS'serves'
p1584
I1633
sS'server'
p1585
I1311
sS'sanity'
p1586
I1635
sS'panchetta'
p1587
I1636
sS't'
p1588
I1637
sS'Rao'
p1589
I1529
sS'served'
p1590
I1639
sS'nice'
p1591
I2700
sS'half/half'
p1592
I1641
sS'reasonably'
p1593
I1642
sS'Japenese'
p1594
I1644
sS'seating'
p1595
I1645
sS'YUMMY'
p1596
I1646
sS'Manhatten'
p1597
I1647
sS'Reuben'
p1598
I1649
sS'cancel'
p1599
I1485
sS'Seriously'
p1600
I1651
sS'lobster'
p1601
I1652
sS'table'
p1602
I3287
sS'New'
p1603
I1654
sS'divine'
p1604
I1655
sS'redeeming'
p1605
I1656
sS'gross'
p1606
I1657
sS'slice'
p1607
I1658
sS'Pastrami'
p1608
I1659
sS'Gulab'
p1609
I1660
sS'drenched'
p1610
I1661
sS'noon'
p1611
I1662
sS'footing'
p1612
I1663
sS'overly'
p1613
I1664
sS'hipster'
p1614
I1665
sS'provides'
p1615
I1666
sS'forks'
p1616
I1667
sS'moderate'
p1617
I1668
sS'turkey'
p1618
I1669
sS'welcome'
p1619
I1670
sS'roast'
p1620
I1671
sS'business'
p1621
I1672
sS'intimate'
p1622
I1673
sS'Tapas'
p1623
I1674
sS'ration'
p1624
I1675
sS'unusual'
p1625
I1490
sS'market'
p1626
I2588
sS'PLACE'
p1627
I1677
sS'prepared'
p1628
I2704
sS'throw'
p1629
I839
sS'cheff'
p1630
I1680
sS'on'
p1631
I1681
sS'stone'
p1632
I1682
sS'ok'
p1633
I1683
sS'Salads'
p1634
I2034
sS'oh'
p1635
I1684
sS'of'
p1636
I1685
sS'paninis'
p1637
I1686
sS'favorite'
p1638
I1687
sS'Check'
p1639
I1450
sS'pistachio'
p1640
I1689
sS'fell'
p1641
I1690
sS'oz'
p1642
I1691
sS'chow'
p1643
I1692
sS'donut'
p1644
I2894
sS'luck'
p1645
I1693
sS'or'
p1646
I1694
sS'advanatage'
p1647
I1696
sS'8.50'
p1648
I1697
sS'quietly'
p1649
I1698
sS'No'
p1650
I1699
sS'thanked'
p1651
I3295
sS'SMITH'
p1652
I1701
sS'CASH'
p1653
I1702
sS'non-intrusive'
p1654
I1703
sS'omlette'
p1655
I1704
sS'Add'
p1656
I1705
sS'everyone'
p1657
I2106
sS'lively'
p1658
I1707
sS'parties'
p1659
I1708
sS'mark'
p1660
I1709
sS'your'
p1661
I1710
sS'bubbly'
p1662
I1712
sS'breath'
p1663
I1713
sS'prepare'
p1664
I1367
sS'Though'
p1665
I570
sS'unisex'
p1666
I1717
sS'removing'
p1667
I1718
sS'there'
p1668
I1719
sS'retching'
p1669
I1720
sS'hey'
p1670
I1794
sS'lol'
p1671
I1722
sS'desert'
p1672
I1723
sS'start'
p1673
I1724
sS'2\xc2\xa01/2'
p1674
I1726
sS'low'
p1675
I1727
sS'lot'
p1676
I1728
sS'lox'
p1677
I1729
sS'UES'
p1678
I1730
sS'survives'
p1679
I1732
sS'spicy'
p1680
I1733
sS'complete'
p1681
I1734
sS'tranquility'
p1682
I1735
sS'regard'
p1683
I1736
sS'Experience'
p1684
I1737
sS'idea'
p1685
I2112
sS'jus'
p1686
I1739
sS'Thailand'
p1687
I3302
sS'Small'
p1688
I1741
sS'apologizing'
p1689
I1372
sS'trying'
p1690
I1743
sS'with'
p1691
I1744
sS'spice'
p1692
I1745
sS'abused'
p1693
I1746
sS'rush'
p1694
I1747
sS'romantic'
p1695
I1748
sS'joint'
p1696
I3213
sS'House'
p1697
I1749
sS'bucket'
p1698
I1751
sS'SHOULD'
p1699
I1752
sS'strawberry'
p1700
I1753
sS'Mojito'
p1701
I1754
sS'Milan'
p1702
I1756
sS'Ave'
p1703
I1757
sS'agree'
p1704
I1759
sS'toilet'
p1705
I1760
sS'palate'
p1706
I1761
sS'ad'
p1707
I1763
sS'taste'
p1708
I1764
sS'certain'
p1709
I1765
sS'describe'
p1710
I1766
sS'moved'
p1711
I1767
sS'deep'
p1712
I1768
sS'an'
p1713
I1769
sS'How'
p1714
I1770
sS'as'
p1715
I1771
sS'tasty'
p1716
I1772
sS'at'
p1717
I1773
sS'Gorgeous'
p1718
I1774
sS'girlfriend'
p1719
I1775
sS'watched'
p1720
I1776
sS'An'
p1721
I2718
sS'fill'
p1722
I1714
sS'again'
p1723
I1779
sS'stumbled'
p1724
I1780
sS'maybe'
p1725
I1781
sS'lOVE'
p1726
I1782
sS'crunch'
p1727
I1783
sS'quintessential'
p1728
I2875
sS'rubber'
p1729
I1785
sS'bragging'
p1730
I1786
sS'5'
p1731
I1787
sS'instantly'
p1732
I3333
sS'you'
p1733
I1788
sS'tagliatelle'
p1734
I1789
sS'Vanilla'
p1735
I1790
sS'poor'
p1736
I1791
sS'requested'
p1737
I1792
sS'Great'
p1738
I1793
sS'branzino'
p1739
I1795
sS'students'
p1740
I1796
sS'refunded'
p1741
I1797
sS'tupperware'
p1742
I2479
sS'teeth'
p1743
I1798
sS'pear'
p1744
I1799
sS'includes'
p1745
I1800
sS'pricce'
p1746
I1075
sS'important'
p1747
I1802
sS'unattractive'
p1748
I1803
sS'fresh'
p1749
I2726
sS'included'
p1750
I1804
sS'resembled'
p1751
I1805
sS'wife'
p1752
I1806
sS'3-6'
p1753
I1807
sS'trattoria'
p1754
I1808
sS'Street'
p1755
I1809
sS'u'
p1756
I1810
sS'god'
p1757
I1811
sS'alright'
p1758
I1812
sS'platter'
p1759
I1813
sS'original'
p1760
I1814
sS'all'
p1761
I1815
sS'forget'
p1762
I9
sS'chinese'
p1763
I1817
sS'beware'
p1764
I1818
sS'lack'
p1765
I1819
sS'dollar'
p1766
I1820
sS'devine'
p1767
I1821
sS'Caesar'
p1768
I1822
sS'YUM'
p1769
I1823
sS'cooperative'
p1770
I1824
sS'parmesan'
p1771
I1825
sS'messy'
p1772
I50
sS'kick-ass'
p1773
I1827
sS'mascarpone'
p1774
I57
sS'undercooked'
p1775
I1829
sS'reluctant'
p1776
I70
sS'everywhere'
p1777
I1832
sS'WAS'
p1778
I1514
sS'Pastis'
p1779
I1834
sS'whoever'
p1780
I1835
sS'dumpling'
p1781
I1836
sS'sashimi'
p1782
I1837
sS'to'
p1783
I1838
sS'th'
p1784
I1839
sS'croquette'
p1785
I131
sS'smile'
p1786
I1841
sS'enjoying'
p1787
I1842
sS'hideous'
p1788
I144
sS'Eat'
p1789
I148
sS'advice'
p1790
I2010
sS'paying'
p1791
I1845
sS'premium'
p1792
I1846
sS'returning'
p1793
I171
sS'very'
p1794
I1848
sS'fav'
p1795
I1849
sS'overdone'
p1796
I191
sS'sons'
p1797
I1852
sS'fan'
p1798
I206
sS'Soho'
p1799
I1854
sS'decide'
p1800
I1855
sS'fall'
p1801
I215
sS'awful'
p1802
I218
sS'`'
p1803
I1858
sS'heaven'
p1804
I1859
sS'ranting'
p1805
I1860
sS'--'
p1806
I1861
sS'Super'
p1807
I1862
sS'awsome'
p1808
I1676
sS'list'
p1809
I1863
sS'joined'
p1810
I1864
sS'large'
p1811
I1865
sS'Juice'
p1812
I1866
sS'adjust'
p1813
I1867
sS'small'
p1814
I1868
sS'GREAT'
p1815
I1870
sS'homey'
p1816
I3326
sS'neighborhood'
p1817
I1871
sS'tea'
p1818
I1872
sS'nearing'
p1819
I379
sS'preposterous'
p1820
I386
sS'past'
p1821
I1876
sS'Only'
p1822
I1877
sS'design'
p1823
I1878
sS'pass'
p1824
I1879
sS'vomit-inducing'
p1825
I410
sS'East'
p1826
I1882
sS'Korbett'
p1827
I1883
sS'situated'
p1828
I422
sS'cheeses'
p1829
I1885
sS'courtesey'
p1830
I434
sS'opted'
p1831
I1887
sS'musts'
p1832
I1888
sS'sum'
p1833
I452
sS'crust'
p1834
I1890
sS'anniversary'
p1835
I1891
sS'apologized'
p1836
I476
sS'Surprised'
p1837
I2743
sS'scallops'
p1838
I1894
sS'un-appetizing'
p1839
I1895
sS'TOTALLY'
p1840
I1896
sS'full'
p1841
I1897
sS'margherita'
p1842
I1898
sS'Stepping'
p1843
I1899
sS'unprofessional'
p1844
I1900
sS'answers'
p1845
I1901
sS'hours'
p1846
I1902
sS'off-night'
p1847
I1903
sS'sardines'
p1848
I1905
sS'Statue'
p1849
I3084
sS'buy'
p1850
I3505
sS'ahead'
p1851
I1907
sS'Avenue'
p1852
I1908
sS'inspired'
p1853
I620
sS'experience'
p1854
I1910
sS'unfortunately'
p1855
I1911
sS'amount'
p1856
I1912
sS'lasagna'
p1857
I1913
sS'horrified'
p1858
I1914
sS'pick'
p1859
I1915
sS'Gigondas'
p1860
I1916
sS'sushimi'
p1861
I1917
sS'options'
p1862
I1918
sS'brasserie'
p1863
I3134
sS'technique'
p1864
I1919
sS'followed'
p1865
I1920
sS'guacamole'
p1866
I1921
sS'family'
p1867
I1922
sS'young'
p1868
I2749
sS'virgins'
p1869
I1925
sS'plonk'
p1870
I1926
sS'Yellowtail'
p1871
I1927
sS'Too'
p1872
I1928
sS'trained'
p1873
I1929
sS'Tom'
p1874
I1930
sS'munchies'
p1875
I1932
sS'takes'
p1876
I1933
sS'occassion'
p1877
I1934
sS'distinct'
p1878
I1935
sS'blueberry'
p1879
I1936
sS'Overall'
p1880
I1937
sS'finally'
p1881
I930
sS'Lives'
p1882
I1939
sS'gorgeous'
p1883
I832
sS'taken'
p1884
I1941
sS'Immediately'
p1885
I1942
sS'Chutney'
p1886
I1943
sS'possible'
p1887
I1944
sS'more'
p1888
I1945
sS'tikka'
p1889
I1946
sS'cheescake'
p1890
I1062
sS'knows'
p1891
I1948
sS'Okay-i'
p1892
I1949
sS'company'
p1893
I1950
sS'owners'
p1894
I2154
sS'excuse'
p1895
I895
sS'So'
p1896
I1953
sS'stick'
p1897
I904
sS'broke'
p1898
I1955
sS'rudeness'
p1899
I909
sS'known'
p1900
I912
sS'overcrowded'
p1901
I3364
sS'lemony'
p1902
I1958
sS'Yamato'
p1903
I1959
sS'glad'
p1904
I1960
sS'Guacamole'
p1905
I2155
sS'town'
p1906
I1962
sS'Looking'
p1907
I1534
sS'hour'
p1908
I1964
sS'des'
p1909
I116
sS'offended'
p1910
I1966
sS'Toons'
p1911
I994
sS'slowwwww'
p1912
I1784
sS'SO'
p1913
I1969
sS'waiters'
p1914
I2758
sS'greeted'
p1915
I1971
sS'bruschettas'
p1916
I1972
sS'supercilious'
p1917
I1973
sS'Your'
p1918
I1974
sS'def'
p1919
I1028
sS'history'
p1920
I1976
sS'beautiful'
p1921
I1977
sS'pony'
p1922
I1043
sS'brown'
p1923
I1979
sS'uppereast'
p1924
I1980
sS'suggestions'
p1925
I794
sS'whealthy'
p1926
I1982
sS'minimun'
p1927
I1983
sS'pushed'
p1928
I1984
sS'AMAZING'
p1929
I1985
sS'salty'
p1930
I1986
sS'CAN'
p1931
I1987
sS'potatos'
p1932
I1101
sS'dress'
p1933
I1989
sS'You'
p1934
I3344
sS'!'
p1935
I1992
sS'huge'
p1936
I1993
sS'needs'
p1937
I1994
sS'Raymond'
p1938
I1995
sS'rather'
p1939
I1996
sS'plans'
p1940
I1997
sS'comfort'
p1941
I1998
sS'Jekyll'
p1942
I1172
sS'freshly'
p1943
I2001
sS'dessert'
p1944
I2764
sS'consistency-not'
p1945
I2002
sS'stir'
p1946
I2003
sS'goat'
p1947
I2004
sS'Easily'
p1948
I2005
sS'sandwich'
p1949
I2006
sS'okay'
p1950
I2007
sS'intended'
p1951
I1228
sS'waitstaff'
p1952
I1219
sS'Seafood'
p1953
I1414
sS'Dog'
p1954
I54
sS'Remind'
p1955
I2012
sS'tries'
p1956
I2013
sS'lighting'
p1957
I2014
sS'fe'
p1958
I2015
sS'Casimir'
p1959
I1127
sS'backyard'
p1960
I2017
sS'tacos'
p1961
I2018
sS'authentic'
p1962
I2019
sS'response'
p1963
I2020
sS'Sophia'
p1964
I2021
sS'a'
p1965
I2022
sS'thought'
p1966
I3379
sS'refuse'
p1967
I2023
sS'Everyone'
p1968
I12
sS'crowded'
p1969
I2025
sS'onto'
p1970
I2026
sS'eats'
p1971
I2027
sS'anytime'
p1972
I2028
sS'buns'
p1973
I2029
sS'responsibility'
p1974
I2030
sS'halibut'
p1975
I2031
sS'overcooked'
p1976
I2032
sS'???'
p1977
I2033
sS'egg'
p1978
I1361
sS'playing'
p1979
I2035
sS'patio'
p1980
I2036
sS'turnover'
p1981
I2037
sS'pans'
p1982
I1374
sS'BISTRO'
p1983
I2039
sS'What'
p1984
I2040
sS'help'
p1985
I2041
sS'winged'
p1986
I1398
sS'Interesting'
p1987
I2043
sS'sooo'
p1988
I2044
sS'soon'
p1989
I2045
sS'mousse'
p1990
I2046
sS'attitude'
p1991
I1421
sS'dough'
p1992
I1427
sS'same'
p1993
I2049
sS'signs'
p1994
I2050
sS'smiling'
p1995
I2051
sS'avenue'
p1996
I2053
sS'its'
p1997
I2054
sS'arrogant'
p1998
I2055
sS'features'
p1999
I344
sS'AVAILABLE'
p2000
I1452
sS'25'
p2001
I2058
sS'style'
p2002
I2059
sS'20'
p2003
I2060
sS'alla'
p2004
I2061
sS'sodium'
p2005
I2062
sS'pray'
p2006
I2063
sS'Dessert'
p2007
I2064
sS'29'
p2008
I2065
sS'actually'
p2009
I2066
sS'late'
p2010
I2067
sS'overated'
p2011
I2489
sS'EVERY'
p2012
I2068
sS'attended'
p2013
I2069
sS'friendliest'
p2014
I2070
sS'pesto'
p2015
I2071
sS'sauce'
p2016
I1520
sS'fool'
p2017
I2074
sS'wasabe'
p2018
I2075
sS'evening'
p2019
I614
sS'Bar'
p2020
I1538
sS'generously'
p2021
I2078
sS'disrespectful'
p2022
I2079
sS'aggressively'
p2023
I989
sS'food'
p2024
I2081
sS'trivialities'
p2025
I2082
sS'Shabu'
p2026
I2083
sS'L'
p2027
I2084
sS'speechless'
p2028
I2085
sS'walls'
p2029
I2086
sS'frizzy'
p2030
I2087
sS'sit-in'
p2031
I2088
sS'foot'
p2032
I2089
sS'complain'
p2033
I2090
sS'bigger'
p2034
I2091
sS'Overpriced'
p2035
I2092
sS'easily'
p2036
I2093
sS'gets'
p2037
I3356
sS'everytime'
p2038
I2094
sS'occasions'
p2039
I196
sS'level'
p2040
I2096
sS'payed'
p2041
I2097
sS'courses'
p2042
I2098
sS'someone'
p2043
I2076
sS'stopped'
p2044
I2099
sS'Thanks'
p2045
I2100
sS'turns'
p2046
I2101
sS'found'
p2047
I2102
sS'obligated'
p2048
I1391
sS'ports'
p2049
I2104
sS'downside'
p2050
I2105
sS'clams'
p2051
I1706
sS'knowledgeable'
p2052
I2107
sS'delicious'
p2053
I2108
sS'house'
p2054
I2109
sS'fish'
p2055
I2110
sS'hard'
p2056
I2111
sS'Rosa'
p2057
I1738
sS'accidentally'
p2058
I2113
sS'bland'
p2059
I2174
sS'oil'
p2060
I2114
sS'expect'
p2061
I2115
sS'squishy'
p2062
I2116
sS'operation'
p2063
I2117
sS'beyond'
p2064
I2118
sS'event'
p2065
I2119
sS'really'
p2066
I2120
sS'leave'
p2067
I2256
sS'it-especially'
p2068
I2122
sS'uninvited'
p2069
I1711
sS'missed'
p2070
I2124
sS'wondered'
p2071
I2125
sS'item'
p2072
I2126
sS'miss'
p2073
I2175
sS'since'
p2074
I2128
sS'tiramisu'
p2075
I2129
sS'health'
p2076
I2131
sS'7'
p2077
I2132
sS'aligned'
p2078
I2133
sS'maitre-D'
p2079
I2134
sS'Cool'
p2080
I2135
sS'ass'
p2081
I2136
sS'bistro'
p2082
I2137
sS'None'
p2083
I1282
sS'drink'
p2084
I3362
sS'bass'
p2085
I2140
sS'pathetic'
p2086
I2141
sS'calzone'
p2087
I2142
sS'guess'
p2088
I2178
sS'pleasant'
p2089
I2144
sS'extraordinary'
p2090
I2145
sS'reason'
p2091
I2146
sS'imagine'
p2092
I2147
sS'ask'
p2093
I2148
sS'Uni'
p2094
I2149
sS'attendant'
p2095
I2150
sS'beginning'
p2096
I2151
sS'guy'
p2097
I2152
sS'definition'
p2098
I2153
sS'Fantastic'
p2099
I1951
sS'Eh'
p2100
I1961
sS'thread'
p2101
I2156
sS'People'
p2102
I1965
sS'terrible'
p2103
I2158
sS'terribly'
p2104
I2159
sS'Mussles'
p2105
I2160
sS'expecting'
p2106
I2161
sS'w'
p2107
I2162
sS'deff'
p2108
I2164
sS'miso'
p2109
I2165
sS'dine'
p2110
I2166
sS'dont'
p2111
I2167
sS'feel'
p2112
I2168
sS'IN'
p2113
I2169
sS'fancy'
p2114
I2170
sS'feet'
p2115
I2171
sS'Indian'
p2116
I2172
sS'done'
p2117
I2173
sS'halfway'
p2118
I1904
sS'Ess-A-Bagel'
p2119
I2127
sS'Ravioli'
p2120
I2176
sS'passes'
p2121
I2177
sS'story'
p2122
I2143
sS'Eating'
p2123
I2179
sS'guest'
p2124
I2180
sS'Rude'
p2125
I2181
sS'benedict'
p2126
I2182
sS'moderately'
p2127
I2183
sS'least'
p2128
I2184
sS'scallion'
p2129
I2185
sS'Cheers'
p2130
I2186
sS'custards'
p2131
I1438
sS'passed'
p2132
I2189
sS'scheme'
p2133
I2190
sS'banana'
p2134
I2192
sS'store'
p2135
I2193
sS'too'
p2136
I2194
sS'tramezzinis'
p2137
I2195
sS'Helpful'
p2138
I2196
sS'trapped'
p2139
I2197
sS'month'
p2140
I2198
sS'Millenium'
p2141
I2199
sS'hesititate'
p2142
I2200
sS'mmmm'
p2143
I2201
sS'part'
p2144
I2202
sS'word'
p2145
I2598
sS'indo-chinese'
p2146
I2203
sS'bouche'
p2147
I925
sS'Fried'
p2148
I1695
sS'stairs'
p2149
I2206
sS'kind'
p2150
I2207
sS'recieved'
p2151
I2208
sS'compliments'
p2152
I1412
sS'gotten'
p2153
I2211
sS'acknowledgement'
p2154
I3374
sS'nevertheless'
p2155
I3375
sS'10-piece'
p2156
I2213
sS'supposed'
p2157
I2214
sS'stale'
p2158
I2215
sS'jem'
p2159
I2216
sS'treated'
p2160
I2217
sS'remembers'
p2161
I2218
sS'SPICE'
p2162
I2219
sS'outta'
p2163
I2220
sS'uncomfortable'
p2164
I2791
sS'jsut'
p2165
I2222
sS'outstanding'
p2166
I2223
sS'wasnt'
p2167
I552
sS'well'
p2168
I3377
sS'ages'
p2169
I2226
sS'juicy'
p2170
I2227
sS'juice'
p2171
I2228
sS'blond'
p2172
I2229
sS'cleaned'
p2173
I2230
sS'Got'
p2174
I2231
sS'delictable'
p2175
I3378
sS'rushing'
p2176
I2232
sS'orders'
p2177
I2233
sS'sensual'
p2178
I2234
sS'option'
p2179
I2235
sS'lie'
p2180
I2236
sS'nights'
p2181
I2237
sS'fanatical'
p2182
I2238
sS'depending'
p2183
I2239
sS'Food'
p2184
I2240
sS'self'
p2185
I2241
sS'also'
p2186
I2243
sS'lip'
p2187
I2244
sS'sandwiches'
p2188
I2245
sS'With'
p2189
I2246
sS'play'
p2190
I2247
sS'Raga'
p2191
I2248
sS'components'
p2192
I2249
sS'retired'
p2193
I2250
sS'VERY'
p2194
I2251
sS'eggs'
p2195
I2252
sS'measures'
p2196
I2253
sS'reach'
p2197
I1621
sS'chart'
p2198
I2255
sS'raucous'
p2199
I356
sS'experiences'
p2200
I2258
sS'plan'
p2201
I2259
sS'eaten'
p2202
I2260
sS'70'
p2203
I2261
sS'nothing'
p2204
I2262
sS'Fresh'
p2205
I2263
sS'The'
p2206
I2264
sS'Shrimp'
p2207
I2265
sS'extremely'
p2208
I2266
sS'oyster'
p2209
I2267
sS'understands'
p2210
I2268
sS'clear'
p2211
I2270
sS'sometimes'
p2212
I2271
sS'cover'
p2213
I2272
sS'5-8'
p2214
I2273
sS'traditional'
p2215
I2274
sS'cramped'
p2216
I2275
sS'clean'
p2217
I2276
sS'charged'
p2218
I269
sS'institutions'
p2219
I2278
sS'lying'
p2220
I2279
sS'particularly'
p2221
I2281
sS'stunned'
p2222
I2282
sS'Had'
p2223
I1162
sS'diner'
p2224
I2285
sS'top-notch'
p2225
I2286
sS'Slamwich'
p2226
I2287
sS'fine'
p2227
I2288
sS'Problem'
p2228
I2204
sS'Poor'
p2229
I2290
sS'chimes'
p2230
I2291
sS'believe'
p2231
I2205
sS'Bass'
p2232
I2293
sS'Anybody'
p2233
I2601
sS'less'
p2234
I3386
sS'French'
p2235
I2296
sS'starters'
p2236
I2297
sS'failed'
p2237
I2298
sS'pretty'
p2238
I2299
sS'money'
p2239
I1762
sS'8'
p2240
I2301
sS'Shanghai'
p2241
I3337
sS'Spice'
p2242
I2302
sS'hip'
p2243
I2303
sS'Bedford'
p2244
I2304
sS'his'
p2245
I2305
sS'hit'
p2246
I2306
sS'Margheritta'
p2247
I2307
sS'luke'
p2248
I2308
sS'Favorite'
p2249
I2309
sS'feels'
p2250
I2310
sS'preparing'
p2251
I180
sS'closely'
p2252
I2312
sS'shared'
p2253
I2313
sS'combinations'
p2254
I2314
sS'ave.'
p2255
I2209
sS'him'
p2256
I2316
sS'distraction'
p2257
I2317
sS'devoured'
p2258
I2318
sS'showed'
p2259
I1589
sS'THIS'
p2260
I2320
sS'diamond'
p2261
I1947
sS'cry'
p2262
I2321
sS'EXPERIENCE'
p2263
I2322
sS'ACTUALLY'
p2264
I2323
sS'common'
p2265
I2324
sS'recommendations'
p2266
I2325
sS'hype'
p2267
I2326
sS'river'
p2268
I2327
sS'courteous'
p2269
I2328
sS'restaurants'
p2270
I2329
sS'insane'
p2271
I2330
sS'cramp'
p2272
I1464
sS'set'
p2273
I2332
sS'art'
p2274
I2333
sS'For'
p2275
I2334
sS'cocktail'
p2276
I3027
sS'Decent'
p2277
I2335
sS'Spreads'
p2278
I2336
sS'raddichio'
p2279
I2337
sS'see'
p2280
I2338
sS'are'
p2281
I2339
sS'sea'
p2282
I2340
sS'tender'
p2283
I2341
sS'close'
p2284
I2342
sS'vins'
p2285
I2343
sS'arm'
p2286
I2344
sS'#'
p2287
I2345
sS'drumsticks'
p2288
I2346
sS'freindly'
p2289
I2347
sS'horrid'
p2290
I1931
sS'visiting'
p2291
I2349
sS'explored'
p2292
I3061
sS'wow'
p2293
I2350
sS'urchin'
p2294
I2813
sS'FAVORITE'
p2295
I1011
sS'romatic'
p2296
I2353
sS'exclaimed'
p2297
I2354
sS'various'
p2298
I2355
sS'mussels'
p2299
I2356
sS'probably'
p2300
I2357
sS'weekly'
p2301
I1594
sS'numerous'
p2302
I2359
sS'compliment'
p2303
I2360
sS'available'
p2304
I2361
sS'Kind'
p2305
I2362
sS'recently'
p2306
I2363
sS'missing'
p2307
I2364
sS'Lexicographers'
p2308
I2365
sS'sold'
p2309
I2366
sS'attention'
p2310
I2367
sS'york'
p2311
I3046
sS'perfection'
p2312
I3215
sS'AND'
p2313
I2369
sS'both'
p2314
I2370
sS'last'
p2315
I2371
sS'Greek'
p2316
I225
sS'fiance'
p2317
I2373
sS'Fish'
p2318
I2374
sS'barely'
p2319
I2375
sS'Farms'
p2320
I2376
sS'became'
p2321
I2377
sS'context'
p2322
I1869
sS'forgotten'
p2323
I2379
sS'vegetarian'
p2324
I1909
sS'Yes'
p2325
I2381
sS'whole'
p2326
I2382
sS'Drinks'
p2327
I2383
sS'load'
p2328
I2384
sS'waitressing'
p2329
I2385
sS'liked'
p2330
I2386
sS'danced'
p2331
I2387
sS'point'
p2332
I2389
sS'simple'
p2333
I2390
sS'sweet'
p2334
I2391
sS'acted'
p2335
I2392
sS'pimentos'
p2336
I2393
sS'whatever'
p2337
I2394
sS'dancer'
p2338
I326
sS'simply'
p2339
I2396
sS'mirrored'
p2340
I1603
sS'Cobb'
p2341
I2398
sS'village'
p2342
I2399
sS'throughout'
p2343
I2400
sS'Was'
p2344
I334
sS'expensive'
p2345
I2402
sS'yukon'
p2346
I2403
sS'souffle'
p2347
I2404
sS'raise'
p2348
I2405
sS'duo'
p2349
I2406
sS'create'
p2350
I2407
sS'Most'
p2351
I146
sS'secret'
p2352
I2409
sS'peppers'
p2353
I2410
sS'ganoush'
p2354
I2411
sS'Saul'
p2355
I2412
sS'meeting'
p2356
I2413
sS'empty'
p2357
I2414
sS'pm'
p2358
I2415
sS'firm'
p2359
I2416
sS'lived'
p2360
I2417
sS'partly'
p2361
I2418
sS'assorted'
p2362
I2419
sS'fire'
p2363
I2420
sS'flavorful'
p2364
I2421
sS'Despite'
p2365
I3405
sS'else'
p2366
I2423
sS'Amma'
p2367
I2424
sS'pricey'
p2368
I2425
sS'understand'
p2369
I2426
sS'Pick'
p2370
I3475
sS'prices'
p2371
I2428
sS'Conveniently'
p2372
I2429
sS'DISAPPOINTED'
p2373
I2430
sS'bruschetta'
p2374
I20
sS'look'
p2375
I2432
sS'hostess'
p2376
I2433
sS'talking'
p2377
I2434
sS'solid'
p2378
I35
sS'teriyaki'
p2379
I3407
sS'straight'
p2380
I40
sS'bill'
p2381
I44
sS'budget'
p2382
I2439
sS'evaluated'
p2383
I2440
sS'sesame'
p2384
I56
sS'33'
p2385
I2828
sS'while'
p2386
I2443
sS'INDIAN'
p2387
I2444
sS'College'
p2388
I1617
sS'behavior'
p2389
I2446
sS'fun'
p2390
I2447
sS'Kobe'
p2391
I2448
sS'charm'
p2392
I2617
sS'City'
p2393
I2449
sS'pound'
p2394
I2450
sS'costly'
p2395
I114
sS'dessserts'
p2396
I2452
sS'thier'
p2397
I3444
sS'wherever'
p2398
I1025
sS'Furthermore'
p2399
I1356
sS'mole'
p2400
I2456
sS'encountered'
p2401
I2457
sS'disappointing'
p2402
I2458
sS'itself'
p2403
I2459
sS'triple'
p2404
I2460
sS'beautifully'
p2405
I2461
sS'different'
p2406
I1540
sS'funny'
p2407
I184
sS'decor'
p2408
I2465
sS'kills'
p2409
I1615
sS'nakgi-bokum'
p2410
I2468
sS'stomachs'
p2411
I2469
sS'elevated'
p2412
I2470
sS'Thalia'
p2413
I2471
sS'shorter'
p2414
I2472
sS'grand'
p2415
I2473
sS'9'
p2416
I2474
sS'haut'
p2417
I3411
sS'torte'
p2418
I1
sS'used'
p2419
I286
sS'classmates'
p2420
I2478
sS'fatty'
p2421
I563
sS'proper'
p2422
I3443
sS'cigar'
p2423
I2480
sS'Traditional'
p2424
I322
sS'moment'
p2425
I2482
sS'cucumber'
p2426
I337
sS'Cod'
p2427
I2484
sS'Pineapple'
p2428
I2485
sS'robust'
p2429
I352
sS'recent'
p2430
I2487
sS'canned'
p2431
I374
sS'lasagnas'
p2432
I2242
sS'task'
p2433
I381
sS'picky'
p2434
I2491
sS'Soh'
p2435
I2492
sS'dancing'
p2436
I2493
sS'spent'
p2437
I2494
sS'person'
p2438
I2495
sS'priced'
p2439
I3579
sS'royalty'
p2440
I3414
sS'everythig'
p2441
I2496
sS'convenient'
p2442
I2497
sS'landmark'
p2443
I2498
sS'Crispy'
p2444
I3121
sS'thats'
p2445
I2841
sS'spend'
p2446
I448
sS'chosing'
p2447
I2501
sS'Considering'
p2448
I2502
sS'things'
p2449
I205
sS'skimpy'
p2450
I3229
sS'politely'
p2451
I2504
sS'breathtaking'
p2452
I2505
sS'competitive'
p2453
I2280
sS'MMMMMMMMMmmmmmm'
p2454
I2507
sS'Wonderful'
p2455
I2508
sS'questions'
p2456
I509
sS'roasted'
p2457
I2510
sS'reviewer'
p2458
I517
sS'alternative'
p2459
I2512
sS'letting'
p2460
I2513
sS'tables'
p2461
I2514
sS'passable'
p2462
I3419
sS'$'
p2463
I2515
sS'disappointed'
p2464
I1626
sS'workers'
p2465
I2517
sS'cuz'
p2466
I2518
sS'dhal'
p2467
I2519
sS'UNPLEASANT'
p2468
I2520
sS'location'
p2469
I2521
sS'YUKA'
p2470
I2522
sS'cash'
p2471
I1875
sS'snap'
p2472
I601
sS'excited'
p2473
I2526
sS'surprised'
p2474
I2527
sS'...'
p2475
I623
sS'customers'
p2476
I2529
sS'daiquiries'
p2477
I636
sS'doors'
p2478
I2531
sS'lacking'
p2479
I2532
sS'Oh'
p2480
I2533
sS'Of'
p2481
I647
sS'couple'
p2482
I650
sS'Chinatown'
p2483
I2536
sS'wives'
p2484
I2537
sS'judgement'
p2485
I2538
sS'Definitely'
p2486
I2539
sS'dearly'
p2487
I2540
sS'Ow'
p2488
I2541
sS'necessary'
p2489
I2542
sS'bit'
p2490
I2543
sS'wings'
p2491
I2544
sS'moody'
p2492
I3049
sS'ON'
p2493
I2546
sS'all-u-can-eat'
p2494
I2547
sS'OK'
p2495
I2548
sS'inviting'
p2496
I3425
sS'OF'
p2497
I2550
sS'Soho/Village/Upper'
p2498
I2551
sS'Highly'
p2499
I2552
sS'ignore'
p2500
I2553
sS'continue'
p2501
I2554
sS'indication'
p2502
I2555
sS'popular'
p2503
I2556
sS'Kha'
p2504
I778
sS'love'
p2505
I2511
sS'stagnating'
p2506
I2558
sS'often'
p2507
I2559
sS'Dancing'
p2508
I2560
sS'trendi'
p2509
I819
sS'Appetizers'
p2510
I2562
sS'some'
p2511
I831
sS'back'
p2512
I2564
sS'predictably'
p2513
I2565
sS'understood'
p2514
I2566
sS'lips'
p2515
I2567
sS'caliber'
p2516
I2568
sS'pricing'
p2517
I2569
sS'trendy'
p2518
I2571
sS'candle'
p2519
I2572
sS'Citysearch'
p2520
I1634
sS'ourselves'
p2521
I2574
sS'sauces'
p2522
I2575
sS'Dame'
p2523
I876
sS'world-beater'
p2524
I2577
sS'delivered'
p2525
I2578
sS'scale'
p2526
I660
sS'Citrus'
p2527
I899
sS'risotto-yum'
p2528
I2581
sS'CHEAP'
p2529
I2582
sS'per'
p2530
I2583
sS'commented'
p2531
I2584
sS'DINING'
p2532
I2585
sS'Mistakes'
p2533
I2586
sS'retro'
p2534
I1307
sS'Nice'
p2535
I2850
sS'prob'
p2536
I1144
sS'minimal'
p2537
I2591
sS'either'
p2538
I2592
sS'porridge'
p2539
I2525
sS'be'
p2540
I2594
sS'patient'
p2541
I981
sS'Look'
p2542
I2596
sS'300'
p2543
I997
sS'salmon'
p2544
I2254
sS'Its'
p2545
I2599
sS'O'
p2546
I2600
sS'refused'
p2547
I1016
sS'step'
p2548
I2602
sS'Duck'
p2549
I2603
sS'negatives'
p2550
I2604
sS'santa'
p2551
I2605
sS'chole'
p2552
I2606
sS'major'
p2553
I2607
sS'rushed'
p2554
I3495
sS'by'
p2555
I2608
sS'shine'
p2556
I2609
sS'Square'
p2557
I2610
sS'Bart'
p2558
I2611
sS'wouldnt'
p2559
I64
sS'yawn'
p2560
I813
sS'delish'
p2561
I2614
sS'deserves'
p2562
I2615
sS'range'
p2563
I2616
sS'eavesdrops'
p2564
I1528
sS'Bark'
p2565
I2618
sS'complimentary'
p2566
I2619
sS'go-to'
p2567
I2620
sS'block'
p2568
I2621
sS'clubhouse'
p2569
I2622
sS'garbage'
p2570
I2623
sS'into'
p2571
I2624
sS'nonsense'
p2572
I2625
sS'cheaply-priced'
p2573
I2626
sS'servers'
p2574
I2627
sS'Everything'
p2575
I1200
sS'appropriate'
p2576
I2629
sS'seasons'
p2577
I2630
sS'Sauce'
p2578
I2631
sS'rolls'
p2579
I2632
sS'delusional'
p2580
I2633
sS'impressed'
p2581
I2634
sS'lonk'
p2582
I2635
sS'prestige'
p2583
I2636
sS'Usha'
p2584
I2637
sS'retrieving'
p2585
I1246
sS'ew'
p2586
I3553
sS'Polite'
p2587
I2639
sS'fast'
p2588
I1261
sS'Every'
p2589
I2641
sS'homemade'
p2590
I2642
sS'heritage'
p2591
I1285
sS'forward'
p2592
I2644
sS'bored'
p2593
I1299
sS'Avoid'
p2594
I3438
sS'opens'
p2595
I2647
sS'elsewhere'
p2596
I2648
sS'filet'
p2597
I2649
sS'relaxed'
p2598
I2650
sS'Hurley'
p2599
I2651
sS'buttery'
p2600
I2652
sS'girlfriends'
p2601
I2653
sS'HIGHLY'
p2602
I2654
sS'soupy'
p2603
I2655
sS'skip'
p2604
I2656
sS'fishy'
p2605
I2657
sS'line'
p2606
I2658
sS'Located'
p2607
I1650
sS'magnificant'
p2608
I2660
sS'restaraunt'
p2609
I2661
sS'Awesome'
p2610
I2662
sS'Indoor'
p2611
I2663
sS'fries'
p2612
I2664
sS'teareyed'
p2613
I2453
sS'Murray'
p2614
I527
sS'par'
p2615
I2011
sS'planet'
p2616
I2667
sS"'re"
p2617
I2668
sS'England'
p2618
I3423
sS'fried'
p2619
I2669
sS'similar'
p2620
I246
sS'called'
p2621
I2671
sS'lovers'
p2622
I2123
sS'uber'
p2623
I2672
sS'sort'
p2624
I2864
sS'ordered'
p2625
I1486
sS'acidity'
p2626
I2675
sS'Mcdonald'
p2627
I2676
sS'minutes'
p2628
I3536
sS'inexpertly'
p2629
I2677
sS'sepia'
p2630
I1504
sS'To'
p2631
I2679
sS'Try-State'
p2632
I2680
sS'associates'
p2633
I2681
sS'ingredients'
p2634
I3376
sS'chat'
p2635
I2682
sS'appetizing'
p2636
I1532
sS'Manhattan'
p2637
I2684
sS'Unagi'
p2638
I2685
sS'rainy'
p2639
I2686
sS'TOASTING'
p2640
I2687
sS'%'
p2641
I1564
sS'VEGETARIAN'
p2642
I2690
sS'saffron'
p2643
I2691
sS'thinks'
p2644
I2692
sS'occasional'
p2645
I2693
sS'These'
p2646
I1069
sS'reputation'
p2647
I1991
sS'actors'
p2648
I1608
sS'Personally'
p2649
I2697
sS'b/c'
p2650
I2698
sS'manhattan'
p2651
I2699
sS'tart'
p2652
I1640
sS'draw'
p2653
I2701
sS'Casa'
p2654
I2702
sS'favourite'
p2655
I2703
sS'-LRB-'
p2656
I1856
sS'AN'
p2657
I1678
sS'cater'
p2658
I2705
sS'Price'
p2659
I2500
sS'reservation'
p2660
I2706
sS'Calling'
p2661
I2707
sS'sides'
p2662
I848
sS'atmoshere'
p2663
I2709
sS'ago'
p2664
I2710
sS'notch'
p2665
I2277
sS'implies'
p2666
I1742
sS'anything'
p2667
I2612
sS'practically'
p2668
I2712
sS'Edna'
p2669
I2713
sS'outing'
p2670
I2714
sS'vow'
p2671
I2715
sS'Al'
p2672
I1320
sS'walked'
p2673
I2717
sS'amused'
p2674
I1426
sS'2002'
p2675
I2719
sS'cooked'
p2676
I2720
sS'As'
p2677
I2721
sS'beverage'
p2678
I2722
sS'At'
p2679
I2723
sS'Village'
p2680
I2724
sS'far'
p2681
I2725
sS'ceviche'
p2682
I1270
sS'Hooka'
p2683
I2727
sS'buffalo'
p2684
I2728
sS'having'
p2685
I2729
sS'once'
p2686
I2730
sS'code'
p2687
I2731
sS'partial'
p2688
I2732
sS'ashamed'
p2689
I2876
sS'melts'
p2690
I2734
sS'FRICKIN'
p2691
I2735
sS'Chow'
p2692
I2877
sS'someting'
p2693
I2736
sS'results'
p2694
I2737
sS'However'
p2695
I3450
sS'enjoyable'
p2696
I2738
sS'desserts'
p2697
I2739
sS'go'
p2698
I2740
sS'exceptional'
p2699
I2741
sS'hooka'
p2700
I2742
sS'issues'
p2701
I1893
sS'seemed'
p2702
I2744
sS'Someone'
p2703
I2745
sS'concerned'
p2704
I2747
sS'requesting'
p2705
I2748
sS'Lucky'
p2706
I1924
sS'nose'
p2707
I2750
sS'kababs'
p2708
I2751
sS'Stew'
p2709
I2752
sS"d'"
p2710
I2753
sS'Not'
p2711
I1952
sS'snag'
p2712
I2755
sS'include'
p2713
I2756
sS'friendly'
p2714
I2757
sS'indicating'
p2715
I1970
sS'stocked'
p2716
I2759
sS'street'
p2717
I2760
sS'garden'
p2718
I2761
sS'torture'
p2719
I2762
sS'outside'
p2720
I2763
sS'celebrities'
p2721
I2284
sS'panting'
p2722
I2765
sS'telling'
p2723
I2766
sS'continued'
p2724
I2767
sS'wipe'
p2725
I2768
sS'Ive'
p2726
I3520
sS'no-so-fresh'
p2727
I1613
sS'entire'
p2728
I2770
sS'asparagus'
p2729
I2772
sS'dissapoints'
p2730
I2773
sS'button'
p2731
I2774
sS'marinara/arrabiatta'
p2732
I2775
sS'varys'
p2733
I2776
sS'8.95'
p2734
I2121
sS'skipped'
p2735
I2778
sS'?'
p2736
I3456
sS'Mazing'
p2737
I2780
sS'smug'
p2738
I2781
sS'espeically'
p2739
I2782
sS'concluded'
p2740
I2783
sS'PLEASE'
p2741
I2784
sS'Fast'
p2742
I2785
sS'Cosette'
p2743
I2786
sS'redone'
p2744
I2787
sS'noise'
p2745
I3458
sS'hyde'
p2746
I2789
sS'booth'
p2747
I2790
sS'picked'
p2748
I2221
sS'earth'
p2749
I2792
sS'growing'
p2750
I2819
sS'fishiest'
p2751
I2793
sS'spaghetti'
p2752
I2794
sS'plays'
p2753
I2795
sS'JUST'
p2754
I2796
sS'rate'
p2755
I2797
sS'Prix'
p2756
I2798
sS'delicous'
p2757
I2799
sS'dissapointing'
p2758
I2800
sS'sangria'
p2759
I2801
sS'find'
p2760
I2289
sS'unhelpful'
p2761
I2802
sS'consistently'
p2762
I2803
sS'waiting'
p2763
I2804
sS'indian'
p2764
I2805
sS'eating'
p2765
I2595
sS';'
p2766
I2806
sS'America'
p2767
I2807
sS'refilled'
p2768
I2808
sS'Faan'
p2769
I2809
sS'inspect'
p2770
I2810
sS'cozy'
p2771
I2811
sS'degree'
p2772
I2812
sS'leg'
p2773
I2351
sS'Shanty'
p2774
I2814
sS'subpar'
p2775
I2815
sS'punch'
p2776
I2816
sS'delivering'
p2777
I2817
sS'save'
p2778
I2818
sS'desired'
p2779
I21
sS'Spicy'
p2780
I2292
sS'let'
p2781
I2820
sS'making'
p2782
I1643
sS'fifteen'
p2783
I2822
sS'Maitre-D'
p2784
I2823
sS'wine-by-the-glass'
p2785
I2824
sS'vinegar'
p2786
I2825
sS'great'
p2787
I2826
sS'Chinese'
p2788
I2827
sS'receive'
p2789
I2442
sS'aweful'
p2790
I2904
sS'until'
p2791
I2830
sS'30'
p2792
I2831
sS'leaving'
p2793
I2462
sS'weekday'
p2794
I2834
sS'menu'
p2795
I2835
sS'popcorn'
p2796
I2836
sS'opinion'
p2797
I2837
sS'spices'
p2798
I2388
sS'makes'
p2799
I2839
sS'snobby'
p2800
I2840
sS'Staff'
p2801
I2499
sS'Yorkers'
p2802
I2842
sS'crazy'
p2803
I2843
sS'private'
p2804
I2844
sS'unhappy'
p2805
I2845
sS'duck'
p2806
I2846
sS'reserved'
p2807
I2907
sS'gimmick'
p2808
I2848
sS'mens'
p2809
I2849
sS'lime'
p2810
I2589
sS'standing'
p2811
I2851
sS'biscuits'
p2812
I2103
sS'use'
p2813
I2852
sS'from'
p2814
I2853
sS'Northern'
p2815
I2908
sS'POINT'
p2816
I2855
sS'remains'
p2817
I2856
sS'mirrors'
p2818
I1596
sS'next'
p2819
I2858
sS'few'
p2820
I2859
sS'doubt'
p2821
I2860
sS'crab'
p2822
I2861
sS'Wedding'
p2823
I595
sS'means'
p2824
I3206
sS'noisy'
p2825
I3465
sS'oily'
p2826
I2863
sS'baba'
p2827
I2673
sS'turnoff'
p2828
I2865
sS'1/2'
p2829
I2866
sS'palets'
p2830
I2867
sS'comparison'
p2831
I2868
sS'Manhattanite'
p2832
I1731
sS'factor'
p2833
I2300
sS'impress'
p2834
I2870
sS'about'
p2835
I3466
sS'charming'
p2836
I2872
sS'folks'
p2837
I2873
sS'train'
p2838
I2874
sS'rabbit'
p2839
I2733
sS'east'
p2840
I709
sS'rare'
p2841
I3467
sS'off-set'
p2842
I2910
sS'adequate'
p2843
I2880
sS'casserole'
p2844
I1561
sS'hints'
p2845
I2882
sS'customer'
p2846
I2883
sS'sample'
p2847
I2884
sS'ALL'
p2848
I2885
sS'balls'
p2849
I2886
sS'Regardless'
p2850
I2887
sS'salad'
p2851
I2888
sS'this'
p2852
I2889
sS'ride'
p2853
I2890
sS'clients'
p2854
I2891
sS'Taiwanese'
p2855
I2892
sS'quacamole'
p2856
I2893
sS'gyros'
p2857
I923
sS'anywhere'
p2858
I2895
sS'obvious'
p2859
I2896
sS'thin'
p2860
I2897
sS'praise'
p2861
I2898
sS'island'
p2862
I2899
sS'dhosas'
p2863
I2900
sS'Subtle'
p2864
I1831
sS'closing'
p2865
I2902
sS'anybody'
p2866
I2903
sS'didnt'
p2867
I2829
sS'certainty'
p2868
I3471
sS'Prime'
p2869
I2906
sS'tap'
p2870
I2847
sS'patron'
p2871
I2854
sS'snacks'
p2872
I2857
sS'pieces'
p2873
I2879
sS'high'
p2874
I2911
sS'Ambience'
p2875
I2916
sS'tag'
p2876
I2913
sS'something'
p2877
I2914
sS'tab'
p2878
I2915
sS'Moules'
p2879
I2917
sS'bones'
p2880
I2912
sS'wonderful'
p2881
I2188
sS'shrimp'
p2882
I2918
sS'onions'
p2883
I2919
sS'native'
p2884
I2920
sS'lamb'
p2885
I2921
sS'HUGE'
p2886
I2922
sS'varied'
p2887
I1844
sS'friendlier'
p2888
I2924
sS'sit'
p2889
I2925
sS'vibe'
p2890
I2926
sS'six'
p2891
I2927
sS'Priced'
p2892
I3188
sS'fortunate'
p2893
I2928
sS'located'
p2894
I2929
sS'varies'
p2895
I2930
sS'instead'
p2896
I2931
sS'establishment'
p2897
I2932
sS'stand'
p2898
I2933
sS'fare'
p2899
I2934
sS'entree'
p2900
I2935
sS'blocks'
p2901
I2936
sS'attend'
p2902
I2937
sS'Shabu-Shabu'
p2903
I2938
sS'act'
p2904
I2939
sS'unhurried'
p2905
I2940
sS'upstate'
p2906
I2941
sS'daring'
p2907
I2746
sS'tomato'
p2908
I2943
sS'introduced'
p2909
I3478
sS'light'
p2910
I2944
sS'counter'
p2911
I2945
sS'While'
p2912
I2946
sS'One'
p2913
I2947
sS'scoop'
p2914
I2948
sS'deigning'
p2915
I2949
sS'honestly'
p2916
I2950
sS'agenda'
p2917
I2951
sS'classy'
p2918
I2952
sS'fallback'
p2919
I2953
sS'counted'
p2920
I2954
sS'Expensive'
p2921
I2955
sS'breast'
p2922
I2311
sS'Who'
p2923
I2957
sS'soggy'
p2924
I2958
sS'piece'
p2925
I3535
sS'ever-changing'
p2926
I2959
sS'minnow'
p2927
I2960
sS'wedding'
p2928
I2659
sS'Smith'
p2929
I2962
sS'citysearch'
p2930
I2963
sS'report'
p2931
I1525
sS'own'
p2932
I3482
sS'including'
p2933
I2965
sS'majorly'
p2934
I2467
sS'during'
p2935
I2315
sS'bunch'
p2936
I2968
sS'perfect'
p2937
I2969
sS'write'
p2938
I2970
sS'brioche'
p2939
I2613
sS'Cyrpriot'
p2940
I2971
sS'FIRED'
p2941
I2972
sS'till'
p2942
I2973
sS'gari'
p2943
I2974
sS'winning'
p2944
I2975
sS'age'
p2945
I2976
sS'willing'
p2946
I2977
sS'choose'
p2947
I2978
sS'pre-theatre'
p2948
I2979
sS'orange'
p2949
I2980
sS'covered'
p2950
I2981
sS'holiday'
p2951
I2982
sS'crowds'
p2952
I2983
sS'jukebox'
p2953
I2984
sS'Queens'
p2954
I2985
sS'BFC'
p2955
I2986
sS'Loved'
p2956
I2987
sS'later'
p2957
I2832
sS'dam'
p2958
I2988
sS'swordfish'
p2959
I2989
sS'accomodating'
p2960
I2990
sS'mention'
p2961
I2991
sS'Mother'
p2962
I2992
sS'front'
p2963
I2993
sS'guaranteeed'
p2964
I2994
sS'Bukhara'
p2965
I3485
sS'day'
p2966
I2995
sS'risotto'
p2967
I2996
sS'intelligent'
p2968
I2997
sS'freshness'
p2969
I2998
sS'd\xc3\xa9cor'
p2970
I1060
sS'weather'
p2971
I3487
sS'overcharged'
p2972
I3001
sS'truth'
p2973
I3002
sS'accompanied'
p2974
I3003
sS'stock'
p2975
I3004
sS'glasses'
p2976
I514
sS'watery'
p2977
I3006
sS'crabmeat'
p2978
I3007
sS'From'
p2979
I3008
sS'blacklisted'
p2980
I3009
sS'doing'
p2981
I3010
sS'adventure'
p2982
I3011
sS'apologize'
p2983
I3012
sS'ambiance'
p2984
I3013
sS'Liberty'
p2985
I3014
sS'apppetizers'
p2986
I851
sS'timely'
p2987
I2769
sS'doubled'
p2988
I3016
sS'Which'
p2989
I3017
sS'exceeded'
p2990
I3018
sS'our'
p2991
I3019
sS'Grammercy'
p2992
I3020
sS'additions'
p2993
I3490
sS'special'
p2994
I3021
sS'out'
p2995
I3022
sS'category'
p2996
I3023
sS'respects'
p2997
I3024
sS'afterwards'
p2998
I3025
sS'Pakistani'
p2999
I3026
sS'acknowledgment'
p3000
I2187
sS"'"
p3001
I3028
sS'bag'
p3002
I2210
sS'Very'
p3003
I3030
sS'mind-bogglingly'
p3004
I2771
sS'mediorce'
p3005
I3033
sS'disapointed'
p3006
I3034
sS'Unique'
p3007
I3035
sS'cause'
p3008
I3036
sS'red'
p3009
I3037
sS'scampi'
p3010
I3038
sS'wines'
p3011
I3039
sS'eco'
p3012
I1072
sS'scorn'
p3013
I3041
sS'Reliable'
p3014
I3042
sS'promptly'
p3015
I3043
sS'completely'
p3016
I3044
sS'please'
p3017
I3180
sS'surely'
p3018
I3045
sS'Thin'
p3019
I101
sS'napkins'
p3020
I3047
sS'early'
p3021
I2488
sS'TWENTY'
p3022
I3048
sS'disgusted'
p3023
I3050
sS'chilli'
p3024
I1999
sS'organic'
p3025
I3052
sS'her'
p3026
I1715
sS'peeve'
p3027
I3054
sS'Rib'
p3028
I506
sS'seeking'
p3029
I2080
sS'area'
p3030
I1716
sS'put'
p3031
I3058
sS'times'
p3032
I164
sS'conversation'
p3033
I3060
sS'4th'
p3034
I2506
sS'pudding'
p3035
I177
sS'curtious'
p3036
I3063
sS'mortal'
p3037
I3064
sS'meals'
p3038
I2708
sS'margaritas'
p3039
I3065
sS'Enjoyed'
p3040
I3066
sS'waitress'
p3041
I3067
sS'designed'
p3042
I3068
sS'Lamb'
p3043
I3069
sS'rudely'
p3044
I3070
sS'escorts'
p3045
I3071
sS'Delicate'
p3046
I3032
sS'caviar'
p3047
I3498
sS'Decor'
p3048
I2331
sS'owned'
p3049
I3074
sS'soothing'
p3050
I3075
sS'date'
p3051
I3076
sS'glorified'
p3052
I2319
sS'such'
p3053
I3078
sS'owner'
p3054
I3079
sS'reached'
p3055
I3080
sS'blows'
p3056
I3081
sS'quality'
p3057
I3082
sS'prixe'
p3058
I3083
sS'management'
p3059
I315
sS'sadly'
p3060
I3085
sS'swept'
p3061
I3086
sS'privacy'
p3062
I1424
sS'ordering'
p3063
I3088
sS'Godfather'
p3064
I2923
sS'Voss'
p3065
I3090
sS'system'
p3066
I3091
sS'their'
p3067
I3093
sS'intermediate'
p3068
I3094
sS'impecible'
p3069
I3095
sS'wrapped'
p3070
I3096
sS'efficiently'
p3071
I2942
sS'final'
p3072
I3098
sS'stomach'
p3073
I3099
sS'stars'
p3074
I3100
sS'Baluchi'
p3075
I3101
sS'explanation'
p3076
I3102
sS'exactly'
p3077
I3103
sS'Probably'
p3078
I3104
sS'HERE'
p3079
I440
sS'biggest'
p3080
I3504
sS'accompaniment'
p3081
I3107
sS'liquers'
p3082
I2138
sS'haven'
p3083
I3108
sS'varieties'
p3084
I3109
sS'loved'
p3085
I3110
sS'FANTASTIC'
p3086
I3111
sS'confortable'
p3087
I3112
sS'furnishings'
p3088
I3113
sS'boring'
p3089
I3114
sS'bother'
p3090
I3115
sS'bed'
p3091
I3116
sS'unpretentious'
p3092
I3117
sS'loves'
p3093
I3118
sS'6th'
p3094
I1147
sS'visited'
p3095
I3120
sS'other'
p3096
I3565
sS'bev'
p3097
I2191
sS'tapas'
p3098
I3122
sS'bet'
p3099
I3123
sS'descriptions'
p3100
I3124
sS'Seasons'
p3101
I3125
sS'Caviar'
p3102
I3126
sS'Patsy'
p3103
I3127
sS'comfortable'
p3104
I3128
sS'kimchee'
p3105
I3129
sS'RECOMMENDED'
p3106
I3130
sS'Other'
p3107
I3131
sS'Pad'
p3108
I3132
sS'have'
p3109
I3133
sS'SUCH'
p3110
I1755
sS'need'
p3111
I3135
sS'dosas'
p3112
I3136
sS'apparently'
p3113
I3137
sS'clearly'
p3114
I644
sS'More'
p3115
I3140
sS'venturing'
p3116
I3141
sS'dishes'
p3117
I3142
sS'BIG'
p3118
I675
sS'After'
p3119
I3144
sS'able'
p3120
I3145
sS'mid'
p3121
I3146
sS'impecable'
p3122
I3147
sS'bagel'
p3123
I3148
sS'mix'
p3124
I700
sS'which'
p3125
I3150
sS'mille'
p3126
I3151
sS'='
p3127
I3152
sS'soap'
p3128
I3153
sS'Ghetto'
p3129
I3154
sS'disaster'
p3130
I3155
sS'unless'
p3131
I3156
sS'allow'
p3132
I3157
sS'walkup'
p3133
I3158
sS'frontman'
p3134
I771
sS'THEIR'
p3135
I3160
sS'strikes'
p3136
I3161
sS'upgraded'
p3137
I3384
sS'why'
p3138
I882
sS'patties'
p3139
I3163
sS'Waitstaff'
p3140
I2348
sS'eachother'
p3141
I3165
sS'upset'
p3142
I856
sS'martini'
p3143
I3167
sS'looked'
p3144
I3168
sS'Scallop'
p3145
I3169
sS'NOTHING'
p3146
I3171
sS'occasion'
p3147
I3172
sS'Saturday'
p3148
I3173
sS'fact'
p3149
I3174
sS'mmmmmmmm'
p3150
I3175
sS'atmosphere'
p3151
I3176
sS'selection'
p3152
I3177
sS'Impressed'
p3153
I3178
sS'Paris'
p3154
I3179
sS'Park'
p3155
I2352
sS'agreed'
p3156
I3181
sS'sent'
p3157
I3182
sS'doughy'
p3158
I3183
sS'brother'
p3159
I3184
sS'bring'
p3160
I3185
sS'STREET'
p3161
I965
sS'rough'
p3162
I983
sS'Waste'
p3163
I986
sS'filthy'
p3164
I3089
sS'pleased'
p3165
I995
sS'BEST'
p3166
I3190
sS'staff'
p3167
I1001
sS'Unda'
p3168
I3192
sS'grabbed'
p3169
I1014
sS'knowledge'
p3170
I3194
sS'earned'
p3171
I3195
sS'vindaloo'
p3172
I3196
sS'winner'
p3173
I3197
sS'should'
p3174
I3198
sS'beautification'
p3175
I3199
sS'York'
p3176
I3200
sS'combo'
p3177
I3201
sS'employee'
p3178
I3202
sS'in-house'
p3179
I3203
sS'hope'
p3180
I3204
sS'regularly'
p3181
I3205
sS'move'
p3182
I2961
sS'watching'
p3183
I1114
sS'wonderfull'
p3184
I1118
sS'COULD'
p3185
I3208
sS'flirting'
p3186
I3209
sS'coworker'
p3187
I1351
sS'Keep'
p3188
I1140
sS'120'
p3189
I3212
sS'menus'
p3190
I2000
sS'ones'
p3191
I3214
sS'too-authentic-for-me'
p3192
I2368
sS'werent'
p3193
I3216
sS'sassy'
p3194
I1169
sS'River'
p3195
I3218
sS'chips'
p3196
I3219
sS'endless'
p3197
I683
sS'champagne'
p3198
I2358
sS'shu'
p3199
I3221
sS'waltzes'
p3200
I2964
sS'gras'
p3201
I3223
sS'summer-eat'
p3202
I1209
sS'stuff'
p3203
I3225
sS'Both'
p3204
I3226
sS'she'
p3205
I3227
sS'grab'
p3206
I1240
sS'fixed'
p3207
I1243
sS'looks'
p3208
I2966
sS'inventive'
p3209
I3231
sS'Tartare'
p3210
I3232
sS'heightens'
p3211
I3233
sS'Area'
p3212
I3234
sS'Areo'
p3213
I3235
sS'inovated'
p3214
I3236
sS'artsy'
p3215
I3237
sS'freeze'
p3216
I3238
sS'!!!!'
p3217
I3239
sS'enhanced'
p3218
I3240
sS'vinegar-soaked'
p3219
I3241
sS'LOVE'
p3220
I3242
sS'kimchi'
p3221
I3243
sS'White'
p3222
I3244
sS'packed'
p3223
I3245
sS'REALLY'
p3224
I3246
sS'closes'
p3225
I3247
sS'Good'
p3226
I3248
sS'LOOOVE'
p3227
I3249
sS'literate'
p3228
I3250
sS'tend'
p3229
I1386
sS'favor'
p3230
I1394
sS':'
p3231
I2645
sS'horrible'
p3232
I3253
sS'Wagyu'
p3233
I3254
sS'neither'
p3234
I3255
sS'tent'
p3235
I1850
sS'smilingly'
p3236
I3257
sS'opening'
p3237
I3258
sS'beverages'
p3238
I1454
sS'job'
p3239
I512
sS'joe'
p3240
I3261
sS'NO'
p3241
I3057
sS'Edge'
p3242
I3262
sS'Yakitori'
p3243
I3263
sS'hits'
p3244
I3264
sS'weeks'
p3245
I1515
sS'above-average'
p3246
I3265
sS'always'
p3247
I2095
sS'joke'
p3248
I3266
sS'taking'
p3249
I3267
sS'la'
p3250
I3268
sS'Ambiance'
p3251
I3269
sS'BEEN'
p3252
I3270
sS'etc'
p3253
I3271
sS'a.m.'
p3254
I3272
sS'atleast'
p3255
I3273
sS'Delicious'
p3256
I3274
sS'STAFF'
p3257
I1577
sS'comment'
p3258
I3277
sS'vent'
p3259
I3278
sS'Would'
p3260
I1597
sS'gone'
p3261
I3280
sS'wall'
p3262
I3281
sS'ca'
p3263
I3282
sS'walk'
p3264
I3283
sS'arugula'
p3265
I3284
sS'variety'
p3266
I3558
sS'Finally'
p3267
I3285
sS'laugh'
p3268
I3286
sS'Scallops'
p3269
I1653
sS'Moderate'
p3270
I3288
sS'nigiri'
p3271
I3289
sS'flourishing'
p3272
I3290
sS'S'
p3273
I3260
sS'i.e.'
p3274
I3291
sS'Get'
p3275
I3292
sS'decent'
p3276
I3293
sS'balsamic'
p3277
I3294
sS'Salmon'
p3278
I1700
sS'Flatbush'
p3279
I3296
sS'momentarily'
p3280
I3297
sS'Brooklyn'
p3281
I1721
sS'parmesean'
p3282
I3299
sS'seasoned'
p3283
I3300
sS'reservations'
p3284
I3543
sS'curtain'
p3285
I1740
sS'passive-aggressive'
p3286
I3303
sS'waste'
p3287
I3304
sS'bbq'
p3288
I3305
sS'out-of-towners'
p3289
I3306
sS'penny'
p3290
I3544
sS'WTF'
p3291
I3307
sS'togethers'
p3292
I3308
sS'am'
p3293
I3309
sS'face'
p3294
I3310
sS'Dragon'
p3295
I3311
sS'finished'
p3296
I3312
sS'sausages'
p3297
I3313
sS'quibbles'
p3298
I3314
sS'kicks'
p3299
I3315
sS'brunch'
p3300
I3316
sS'general'
p3301
I3317
sS'Consequently'
p3302
I1833
sS'present'
p3303
I3319
sS'And'
p3304
I3320
sS'AWSOME'
p3305
I3321
sS'main'
p3306
I3322
sS'unlike'
p3307
I3323
sS'intimidate'
p3308
I3324
sS'plain'
p3309
I3325
sS'restaurant'
p3310
I2372
sS'Hot'
p3311
I3327
sS'value'
p3312
I3328
sS'pretentious'
p3313
I2689
sS'will'
p3314
I3330
sS'DOUBT'
p3315
I3548
sS'Taiwan'
p3316
I3332
sS'ultra'
p3317
I1906
sS'Yon'
p3318
I3334
sS'Noir'
p3319
I3335
sS'almost'
p3320
I3336
sS'squid'
p3321
I74
sS'side'
p3322
I1688
sS'surprisingly'
p3323
I3338
sS'helped'
p3324
I3339
sS'Strike'
p3325
I3340
sS'commending'
p3326
I3341
sS'claimed'
p3327
I3342
sS'bucks'
p3328
I3343
sS'wks'
p3329
I1990
sS'Friendly'
p3330
I3345
sS'Garden'
p3331
I3346
sS'perhaps'
p3332
I3347
sS'vintage'
p3333
I3348
sS'began'
p3334
I3349
sS'captivated'
p3335
I3031
sS'waitresses'
p3336
I3351
sS'romance'
p3337
I3352
sS'allergies'
p3338
I3143
sS'parts'
p3339
I3353
sS'curiousity'
p3340
I3354
sS'party'
p3341
I3355
sS'cream'
p3342
I1778
sS'tomatoes'
p3343
I3357
sS'difficult'
p3344
I3358
sS'alot'
p3345
I2378
sS'caters'
p3346
I3360
sS'setting/atmosphere'
p3347
I3361
sS'definately'
p3348
I2139
sS'upon'
p3349
I3363
sS'exceeds'
p3350
I1610
sS'MSG'
p3351
I3551
sS'Greg'
p3352
I3365
sS'fall-apart'
p3353
I3366
sS'spitting'
p3354
I3367
sS'Steake'
p3355
I2380
sS'comped'
p3356
I3368
sS'impeccable'
p3357
I3369
sS'Haru'
p3358
I3370
sS'keep'
p3359
I3059
sS'La'
p3360
I1053
sS'proceed'
p3361
I3373
sS'fully'
p3362
I1638
sS'i'
p3363
I2212
sS'incredible'
p3364
I2454
sS'antipasti'
p3365
I2225
sS'Cheese'
p3366
I1963
sS'ofr'
p3367
I2295
sS'1'
p3368
I3380
sS'Have'
p3369
I3381
sS'raving'
p3370
I3382
sS'forgivable'
p3371
I3403
sS'meet'
p3372
I2901
sS'BE'
p3373
I2283
sS'Never'
p3374
I3561
sS'maggot'
p3375
I2294
sS'offensive'
p3376
I3562
sS'hands'
p3377
I3388
sS'cakes'
p3378
I3389
sS'somosas'
p3379
I3390
sS'freshmess'
p3380
I3391
sS'Sunday'
p3381
I3392
sS'rooms'
p3382
I3393
sS'seats'
p3383
I3394
sS'topping'
p3384
I3395
sS'ushered'
p3385
I1562
sS'ads'
p3386
I3398
sS'diner-ish'
p3387
I3399
sS'Friday'
p3388
I3400
sS'sky'
p3389
I1045
sS'add'
p3390
I3402
sS'Fridays'
p3391
I1473
sS'raved'
p3392
I2967
sS'wet'
p3393
I2422
sS'adn'
p3394
I3406
sS'warrant'
p3395
I2436
sS'By'
p3396
I3408
sS'match'
p3397
I3409
sS'Salad'
p3398
I3410
sS'Heartland'
p3399
I2475
sS'unpretensious'
p3400
I3412
sS'Dinner'
p3401
I3413
sS'eggplant'
p3402
I3359
sS'five'
p3403
I3415
sS'know'
p3404
I3416
sS'dish'
p3405
I1826
sS'desk'
p3406
I3417
sS'immediately'
p3407
I3418
sS'condescending'
p3408
I2833
sS'amend'
p3409
I3420
sS'Seating'
p3410
I3421
sS'trash'
p3411
I3422
sS'showing'
p3412
I2535
sS'like'
p3413
I2545
sS'lost'
p3414
I2549
sS'sizes'
p3415
I3426
sS'vibrant'
p3416
I3427
sS'Drawbacks'
p3417
I3428
sS'admitted'
p3418
I3429
sS'roti'
p3419
I3430
sS'mussles'
p3420
I2395
sS'become'
p3421
I3432
sS'soft'
p3422
I3433
sS'e'
p3423
I2711
sS'likes'
p3424
I2397
sS'because'
p3425
I3435
sS'Thius'
p3426
I2580
sS'foreseeable'
p3427
I3437
sS'scared'
p3428
I2646
sS'Guaranteed'
p3429
I3439
sS'alive'
p3430
I3440
sS'hair'
p3431
I3441
sS'warmer'
p3432
I3442
sS'Underground'
p3433
I1010
sS'home'
p3434
I2683
sS'happens'
p3435
I3445
sS'hipsters'
p3436
I3446
sS'leaf'
p3437
I3447
sS'Leon'
p3438
I2666
sS'esp'
p3439
I3448
sS'crispy'
p3440
I2401
sS'delightful'
p3441
I2999
sS'favors'
p3442
I503
sS'does'
p3443
I3451
sS'Disney'
p3444
I3452
sS'bustling'
p3445
I3453
sS'truffle'
p3446
I3454
sS'organza'
p3447
I3455
sS'rip-off'
p3448
I2779
sS'pepper'
p3449
I3457
sS'blowing'
p3450
I2788
sS'Inside'
p3451
I3459
sS'happening'
p3452
I3460
sS'overall'
p3453
I3210
sS'host'
p3454
I3461
sS'using'
p3455
I3583
sS'although'
p3456
I3462
sS'hospitable'
p3457
I3463
sS'pasta'
p3458
I3464
sS'particulary'
p3459
I580
sS'sister'
p3460
I2871
sS'actual'
p3461
I2878
sS'asks'
p3462
I3468
sS'herbs'
p3463
I1801
sS'high-end'
p3464
I3470
sS'spilled'
p3465
I2905
sS'likely'
p3466
I3211
sS'Zero'
p3467
I3472
sS'toppings'
p3468
I3473
sS'sweat'
p3469
I3474
sS'Japan'
p3470
I3476
sS'tongue'
p3471
I1284
sS'flair'
p3472
I3005
sS'pastries'
p3473
I3479
sS'!!'
p3474
I3480
sS'equally'
p3475
I3481
sS'handing'
p3476
I3170
sS'keeps'
p3477
I3483
sS'Two'
p3478
I3484
sS'getting'
p3479
I3469
sS'mushrooms'
p3480
I3486
sS'doesnt'
p3481
I3000
sS'been'
p3482
I3488
sS'matcha'
p3483
I3489
sS'lovely'
p3484
I3521
sS'unwelcoming'
p3485
I2073
sS'way-cuter-than-me-that-b'
p3486
I3139
sS'knuckles'
p3487
I3492
sS'additional'
p3488
I3494
sS'whom'
p3489
I1304
sS'marsala'
p3490
I1149
sS'*'
p3491
I3497
sS'apps'
p3492
I3072
sS'proprietor'
p3493
I3499
sS'spots'
p3494
I3500
sS'noticed'
p3495
I3501
sS'visitor'
p3496
I3502
sS'complimented'
p3497
I3503
sS'powdered'
p3498
I3106
sS'over-bearing'
p3499
I3397
sS'shank'
p3500
I3506
sS'miraculously'
p3501
I3507
sS'Well'
p3502
I3508
sS'but'
p3503
I3509
sS'delivery'
p3504
I3510
sS'repeated'
p3505
I3511
sS'lowered'
p3506
I3512
sS'bun'
p3507
I3513
sS'larger'
p3508
I3514
sS'beat'
p3509
I3207
sS'helpful'
p3510
I3424
sS'delivers'
p3511
I3515
sS'highest'
p3512
I3516
sS'eat'
p3513
I3517
sS'he'
p3514
I3518
sS'count'
p3515
I3519
sS'constitute'
p3516
I3015
sS'made'
p3517
I938
sS'wise'
p3518
I3522
sS'places'
p3519
I3524
sS'whether'
p3520
I3525
sS'wish'
p3521
I3526
sS'variations'
p3522
I3527
sS'yorkie'
p3523
I3528
sS'below'
p3524
I3529
sS'Pizzas'
p3525
I3530
sS'hand'
p3526
I3531
sS'cake'
p3527
I3532
sS'Be'
p3528
I3396
sS'problem'
p3529
I3534
sS'Warning'
p3530
I3431
sS'norwegetan'
p3531
I1312
sS'display'
p3532
I3537
sS'Farm'
p3533
I3538
sS'kanish'
p3534
I3092
sS'non-existent'
p3535
I3540
sS'abrupt'
p3536
I1590
sS'horrific'
p3537
I3541
sS'West'
p3538
I3542
sS'recognize'
p3539
I3301
sS'svc'
p3540
I2716
sS'pie'
p3541
I3545
sS'scary'
p3542
I3051
sS'Tasty'
p3543
I3547
sS'ino'
p3544
I3331
sS'Amazing'
p3545
I3549
sS'ink'
p3546
I1446
sS'arrival'
p3547
I2503
sS'flight'
p3548
I3552
sS'girl'
p3549
I1418
sS'complaint'
p3550
I3554
sS'compared'
p3551
I3555
sS"'ll"
p3552
I3556
sS'mushroom'
p3553
I3557
sS'nonetheless'
p3554
I273
sS'fascinating'
p3555
I3559
sS'dressed'
p3556
I3560
sS'45'
p3557
I3385
sS'boot'
p3558
I3387
sS'40'
p3559
I3563
sS'-RRB-'
p3560
I2157
sS'Delivery'
p3561
I3564
sS'book'
p3562
I797
sS'details'
p3563
I3566
sS'Besides'
p3564
I3567
sS'incredibly'
p3565
I3568
sS'pacifico'
p3566
I3569
sS'DAY'
p3567
I3570
sS'repeat'
p3568
I3571
sS'kinds'
p3569
I3275
sS'plate'
p3570
I2909
sS'shredded'
p3571
I3573
sS'class'
p3572
I3162
sS'stay'
p3573
I3574
sS'MOST'
p3574
I3575
sS'chance'
p3575
I3576
sS'kinda'
p3576
I3577
sS'fit-out'
p3577
I3578
sS'foie'
p3578
I3493
sS'friends'
p3579
I3580
sS'opened'
p3580
I3581
sS'HORRID'
p3581
I3582
sS'Garbage'
p3582
I3523
sS'baked'
p3583
I3589
sS'entertainment'
p3584
I3029
sS'rule'
p3585
I3585
sS'portion'
p3586
I3586
sS'oasis'
p3587
I1237
sS'lives'
p3588
I3587
sS'yell'
p3589
I3588
sS'Philly'
p3590
I3584
s.